---
triple:          'arm64-apple-darwin'
binary-path:     '/Users/yirenwu/FinalProject/output/1207'
relocations:
  - { offsetInCU: 0x4C, offset: 0x4C, size: 0x8, addend: 0x0, symName: __ZN6Course10maxNameLenE, symObjAddr: 0x585E4, symBinAddr: 0x100014000, symSize: 0x0 }
  - { offsetInCU: 0x3086, offset: 0x3086, size: 0x8, addend: 0x0, symName: __ZNSt3__124__put_character_sequenceB7v160006IcNS_11char_traitsIcEEEERNS_13basic_ostreamIT_T0_EES7_PKS4_m, symObjAddr: 0x513C, symBinAddr: 0x100007054, symSize: 0x1F4 }
  - { offsetInCU: 0x8265, offset: 0x8265, size: 0x8, addend: 0x0, symName: __ZNSt3__16copy_nB7v160006IPKcmPcEENS_9enable_ifIXsr33__is_cpp17_random_access_iteratorIT_EE5valueET1_E4typeES5_T0_S6_, symObjAddr: 0x9490, symBinAddr: 0x10000B3A8, symSize: 0x44 }
  - { offsetInCU: 0x96FE, offset: 0x96FE, size: 0x8, addend: 0x0, symName: __ZNSt3__1lsB7v160006INS_11char_traitsIcEEEERNS_13basic_ostreamIcT_EES6_PKc, symObjAddr: 0x104, symBinAddr: 0x10000201C, symSize: 0x48 }
  - { offsetInCU: 0x9744, offset: 0x9744, size: 0x8, addend: 0x0, symName: __ZNSt3__14endlB7v160006IcNS_11char_traitsIcEEEERNS_13basic_ostreamIT_T0_EES7_, symObjAddr: 0x178, symBinAddr: 0x100002090, symSize: 0x58 }
  - { offsetInCU: 0x9784, offset: 0x9784, size: 0x8, addend: 0x0, symName: __ZNSt3__1lsB7v160006IcNS_11char_traitsIcEENS_9allocatorIcEEEERNS_13basic_ostreamIT_T0_EES9_RKNS_12basic_stringIS6_S7_T1_EE, symObjAddr: 0x1D0, symBinAddr: 0x1000020E8, symSize: 0x4C }
  - { offsetInCU: 0x97DC, offset: 0x97DC, size: 0x8, addend: 0x0, symName: __ZNSt3__1plB7v160006IcNS_11char_traitsIcEENS_9allocatorIcEEEENS_12basic_stringIT_T0_T1_EERKS9_PKS6_, symObjAddr: 0x1BD4, symBinAddr: 0x100003AEC, symSize: 0x11C }
  - { offsetInCU: 0x987D, offset: 0x987D, size: 0x8, addend: 0x0, symName: __ZNSt3__1rsB7v160006IcNS_11char_traitsIcEENS_9allocatorIcEEEERNS_13basic_istreamIT_T0_EES9_RNS_12basic_stringIS6_S7_T1_EE, symObjAddr: 0x223C, symBinAddr: 0x100004154, symSize: 0x314 }
  - { offsetInCU: 0x994A, offset: 0x994A, size: 0x8, addend: 0x0, symName: __ZNSt3__1eqB7v160006INS_9allocatorIcEEEEbRKNS_12basic_stringIcNS_11char_traitsIcEET_EES9_, symObjAddr: 0x259C, symBinAddr: 0x1000044B4, symSize: 0x148 }
  - { offsetInCU: 0xA770, offset: 0xA770, size: 0x8, addend: 0x0, symName: __ZNSt3__1eqB7v160006IcNS_11char_traitsIcEENS_9allocatorIcEEEEbRKNS_12basic_stringIT_T0_T1_EEPKS6_, symObjAddr: 0x4C34, symBinAddr: 0x100006B4C, symSize: 0xC0 }
  - { offsetInCU: 0xA7D7, offset: 0xA7D7, size: 0x8, addend: 0x0, symName: __ZNSt3__118__constexpr_strlenB7v160006EPKc, symObjAddr: 0x4D90, symBinAddr: 0x100006CA8, symSize: 0x24 }
  - { offsetInCU: 0xA803, offset: 0xA803, size: 0x8, addend: 0x0, symName: __ZNSt3__130__libcpp_is_constant_evaluatedB7v160006Ev, symObjAddr: 0x4E84, symBinAddr: 0x100006D9C, symSize: 0xC }
  - { offsetInCU: 0xA820, offset: 0xA820, size: 0x8, addend: 0x0, symName: __ZNSt3__116__pad_and_outputB7v160006IcNS_11char_traitsIcEEEENS_19ostreambuf_iteratorIT_T0_EES6_PKS4_S8_S8_RNS_8ios_baseES4_, symObjAddr: 0x534C, symBinAddr: 0x100007264, symSize: 0x248 }
  - { offsetInCU: 0xA8EF, offset: 0xA8EF, size: 0x8, addend: 0x0, symName: __ZNSt3__119__debug_db_insert_cB7v160006INS_12basic_stringIcNS_11char_traitsIcEENS_9allocatorIcEEEEEEvPT_, symObjAddr: 0x5808, symBinAddr: 0x100007720, symSize: 0x10 }
  - { offsetInCU: 0xA920, offset: 0xA920, size: 0x8, addend: 0x0, symName: __ZNSt3__112__to_addressB7v160006IKcEEPT_S3_, symObjAddr: 0x58D4, symBinAddr: 0x1000077EC, symSize: 0x14 }
  - { offsetInCU: 0xA988, offset: 0xA988, size: 0x8, addend: 0x0, symName: __ZNSt3__19use_facetB7v160006INS_5ctypeIcEEEERKT_RKNS_6localeE, symObjAddr: 0x5B00, symBinAddr: 0x100007A18, symSize: 0x2C }
  - { offsetInCU: 0xAD68, offset: 0xAD68, size: 0x8, addend: 0x0, symName: __ZNSt3__117__libcpp_allocateB7v160006Emm, symObjAddr: 0x5F9C, symBinAddr: 0x100007EB4, symSize: 0x28 }
  - { offsetInCU: 0xADA5, offset: 0xADA5, size: 0x8, addend: 0x0, symName: __ZNSt3__121__libcpp_operator_newB7v160006IJmEEEPvDpT_, symObjAddr: 0x5FD8, symBinAddr: 0x100007EF0, symSize: 0x24 }
  - { offsetInCU: 0xAFDF, offset: 0xAFDF, size: 0x8, addend: 0x0, symName: __ZNSt3__125__debug_db_invalidate_allB7v160006INS_12basic_stringIcNS_11char_traitsIcEENS_9allocatorIcEEEEEEvPT_, symObjAddr: 0x63B0, symBinAddr: 0x1000082C8, symSize: 0x10 }
  - { offsetInCU: 0xB245, offset: 0xB245, size: 0x8, addend: 0x0, symName: __ZNSt3__119__debug_db_insert_cB7v160006INS_6vectorIP6CourseNS_9allocatorIS3_EEEEEEvPT_, symObjAddr: 0x6618, symBinAddr: 0x100008530, symSize: 0x10 }
  - { offsetInCU: 0xB276, offset: 0xB276, size: 0x8, addend: 0x0, symName: __ZNSt3__118__debug_db_erase_cB7v160006INS_6vectorIP6CourseNS_9allocatorIS3_EEEEEEvPT_, symObjAddr: 0x68D4, symBinAddr: 0x1000087EC, symSize: 0x10 }
  - { offsetInCU: 0xB2A7, offset: 0xB2A7, size: 0x8, addend: 0x0, symName: __ZNSt3__112__to_addressB7v160006IP6CourseEEPT_S4_, symObjAddr: 0x69F0, symBinAddr: 0x100008908, symSize: 0x14 }
  - { offsetInCU: 0xB2DC, offset: 0xB2DC, size: 0x8, addend: 0x0, symName: __ZNSt3__119__libcpp_deallocateB7v160006EPvmm, symObjAddr: 0x6B54, symBinAddr: 0x100008A6C, symSize: 0x30 }
  - { offsetInCU: 0xB324, offset: 0xB324, size: 0x8, addend: 0x0, symName: __ZNSt3__127__do_deallocate_handle_sizeB7v160006IJEEEvPvmDpT_, symObjAddr: 0x6B84, symBinAddr: 0x100008A9C, symSize: 0x28 }
  - { offsetInCU: 0xB362, offset: 0xB362, size: 0x8, addend: 0x0, symName: __ZNSt3__124__libcpp_operator_deleteB7v160006IJPvEEEvDpT_, symObjAddr: 0x6BAC, symBinAddr: 0x100008AC4, symSize: 0x24 }
  - { offsetInCU: 0xB397, offset: 0xB397, size: 0x8, addend: 0x0, symName: __ZNSt3__13maxB7v160006ImEERKT_S3_S3_, symObjAddr: 0x7234, symBinAddr: 0x10000914C, symSize: 0x2C }
  - { offsetInCU: 0xB3DA, offset: 0xB3DA, size: 0x8, addend: 0x0, symName: __ZNSt3__13minB7v160006ImEERKT_S3_S3_, symObjAddr: 0x7260, symBinAddr: 0x100009178, symSize: 0x2C }
  - { offsetInCU: 0xB41D, offset: 0xB41D, size: 0x8, addend: 0x0, symName: __ZNSt3__13minB7v160006ImNS_6__lessImmEEEERKT_S5_S5_T0_, symObjAddr: 0x72D8, symBinAddr: 0x1000091F0, symSize: 0x54 }
  - { offsetInCU: 0xB4B2, offset: 0xB4B2, size: 0x8, addend: 0x0, symName: __ZNSt3__120__throw_length_errorB7v160006EPKc, symObjAddr: 0x73AC, symBinAddr: 0x1000092C4, symSize: 0x64 }
  - { offsetInCU: 0xB4DA, offset: 0xB4DA, size: 0x8, addend: 0x0, symName: __ZNSt3__13maxB7v160006ImNS_6__lessImmEEEERKT_S5_S5_T0_, symObjAddr: 0x7490, symBinAddr: 0x1000093A8, symSize: 0x54 }
  - { offsetInCU: 0xB534, offset: 0xB534, size: 0x8, addend: 0x0, symName: __ZNSt3__119__allocate_at_leastB7v160006INS_9allocatorIP6CourseEEEENS_19__allocation_resultINS_16allocator_traitsIT_E7pointerEEERS7_m, symObjAddr: 0x75F4, symBinAddr: 0x10000950C, symSize: 0x40 }
  - { offsetInCU: 0xB577, offset: 0xB577, size: 0x8, addend: 0x0, symName: __ZNSt3__142__uninitialized_allocator_move_if_noexceptB7v160006INS_9allocatorIP6CourseEENS_16reverse_iteratorIPS3_EES7_S3_vEET1_RT_T0_SB_S8_, symObjAddr: 0x77D4, symBinAddr: 0x1000096EC, symSize: 0xE8 }
  - { offsetInCU: 0xB5F4, offset: 0xB5F4, size: 0x8, addend: 0x0, symName: __ZNSt3__14swapB7v160006IPP6CourseEEvRT_S5_, symObjAddr: 0x7908, symBinAddr: 0x100009820, symSize: 0x3C }
  - { offsetInCU: 0xB645, offset: 0xB645, size: 0x8, addend: 0x0, symName: __ZNSt3__125__debug_db_invalidate_allB7v160006INS_6vectorIP6CourseNS_9allocatorIS3_EEEEEEvPT_, symObjAddr: 0x79F0, symBinAddr: 0x100009908, symSize: 0x10 }
  - { offsetInCU: 0xB676, offset: 0xB676, size: 0x8, addend: 0x0, symName: __ZNSt3__1neB7v160006IPP6CourseS3_EEbRKNS_16reverse_iteratorIT_EERKNS4_IT0_EE, symObjAddr: 0x7A00, symBinAddr: 0x100009918, symSize: 0x48 }
  - { offsetInCU: 0xB6E7, offset: 0xB6E7, size: 0x8, addend: 0x0, symName: __ZNSt3__114__construct_atB7v160006IP6CourseJS2_EPS2_EEPT_S5_DpOT0_, symObjAddr: 0x7A48, symBinAddr: 0x100009960, symSize: 0x2C }
  - { offsetInCU: 0xB757, offset: 0xB757, size: 0x8, addend: 0x0, symName: __ZNSt3__112__to_addressB7v160006INS_16reverse_iteratorIPP6CourseEEvEENS_5decayIDTclsr19__to_address_helperIT_EE6__callclsr3stdE7declvalIRKS7_EEEEE4typeES9_, symObjAddr: 0x7A74, symBinAddr: 0x10000998C, symSize: 0x24 }
  - { offsetInCU: 0xB78D, offset: 0xB78D, size: 0x8, addend: 0x0, symName: __ZNSt3__14moveB7v160006INS_16reverse_iteratorIPP6CourseEES5_EET0_T_S7_S6_, symObjAddr: 0x7AE0, symBinAddr: 0x1000099F8, symSize: 0x78 }
  - { offsetInCU: 0xB810, offset: 0xB810, size: 0x8, addend: 0x0, symName: __ZNSt3__16__moveB7v160006INS_17_ClassicAlgPolicyENS_16reverse_iteratorIPP6CourseEES6_S6_EENS_4pairIT0_T2_EES8_T1_S9_, symObjAddr: 0x7BC8, symBinAddr: 0x100009AE0, symSize: 0x64 }
  - { offsetInCU: 0xB87C, offset: 0xB87C, size: 0x8, addend: 0x0, symName: __ZNSt3__123__dispatch_copy_or_moveB7v160006INS_17_ClassicAlgPolicyENS_11__move_loopIS1_EENS_14__move_trivialENS_16reverse_iteratorIPP6CourseEES9_S9_EENS_4pairIT2_T4_EESB_T3_SC_, symObjAddr: 0x7C2C, symBinAddr: 0x100009B44, symSize: 0x7C }
  - { offsetInCU: 0xB8FA, offset: 0xB8FA, size: 0x8, addend: 0x0, symName: __ZNSt3__121__unwrap_and_dispatchB7v160006INS_10__overloadINS_11__move_loopINS_17_ClassicAlgPolicyEEENS_14__move_trivialEEENS_16reverse_iteratorIPP6CourseEESB_SB_Li0EEENS_4pairIT0_T2_EESD_T1_SE_, symObjAddr: 0x7CA8, symBinAddr: 0x100009BC0, symSize: 0x12C }
  - { offsetInCU: 0xB98A, offset: 0xB98A, size: 0x8, addend: 0x0, symName: __ZNSt3__114__unwrap_rangeB7v160006INS_16reverse_iteratorIPP6CourseEES5_EENS_4pairIT0_S7_EET_S9_, symObjAddr: 0x7DD4, symBinAddr: 0x100009CEC, symSize: 0x84 }
  - { offsetInCU: 0xBB5C, offset: 0xBB5C, size: 0x8, addend: 0x0, symName: __ZNSt3__113__unwrap_iterB7v160006INS_16reverse_iteratorIPP6CourseEENS_18__unwrap_iter_implIS5_Lb0EEELi0EEEDTclsrT0_8__unwrapclsr3stdE7declvalIT_EEEES9_, symObjAddr: 0x7EF8, symBinAddr: 0x100009E10, symSize: 0x44 }
  - { offsetInCU: 0xBBA0, offset: 0xBBA0, size: 0x8, addend: 0x0, symName: __ZNSt3__19make_pairB7v160006INS_16reverse_iteratorIPP6CourseEES5_EENS_4pairINS_18__unwrap_ref_decayIT_E4typeENS7_IT0_E4typeEEEOS8_OSB_, symObjAddr: 0x7F3C, symBinAddr: 0x100009E54, symSize: 0x38 }
  - { offsetInCU: 0xBBEF, offset: 0xBBEF, size: 0x8, addend: 0x0, symName: __ZNSt3__114__rewrap_rangeB7v160006INS_16reverse_iteratorIPP6CourseEES5_EET_S6_T0_, symObjAddr: 0x7F74, symBinAddr: 0x100009E8C, symSize: 0x5C }
  - { offsetInCU: 0xBC3B, offset: 0xBC3B, size: 0x8, addend: 0x0, symName: __ZNSt3__113__rewrap_iterB7v160006INS_16reverse_iteratorIPP6CourseEES5_NS_18__unwrap_iter_implIS5_Lb0EEEEET_S8_T0_, symObjAddr: 0x7FD0, symBinAddr: 0x100009EE8, symSize: 0x88 }
  - { offsetInCU: 0xBDA8, offset: 0xBDA8, size: 0x8, addend: 0x0, symName: __ZNSt3__119__debug_db_insert_cB7v160006INS_6vectorIP6EventsNS_9allocatorIS3_EEEEEEvPT_, symObjAddr: 0x849C, symBinAddr: 0x10000A3B4, symSize: 0x10 }
  - { offsetInCU: 0xBDD9, offset: 0xBDD9, size: 0x8, addend: 0x0, symName: __ZNSt3__119__debug_db_insert_cB7v160006INS_6vectorIP14RequiredCourseNS_9allocatorIS3_EEEEEEvPT_, symObjAddr: 0x85FC, symBinAddr: 0x10000A514, symSize: 0x10 }
  - { offsetInCU: 0xBE0A, offset: 0xBE0A, size: 0x8, addend: 0x0, symName: __ZNSt3__118__debug_db_erase_cB7v160006INS_6vectorIP6EventsNS_9allocatorIS3_EEEEEEvPT_, symObjAddr: 0x88B8, symBinAddr: 0x10000A7D0, symSize: 0x10 }
  - { offsetInCU: 0xBE3B, offset: 0xBE3B, size: 0x8, addend: 0x0, symName: __ZNSt3__112__to_addressB7v160006IP6EventsEEPT_S4_, symObjAddr: 0x89D4, symBinAddr: 0x10000A8EC, symSize: 0x14 }
  - { offsetInCU: 0xBE70, offset: 0xBE70, size: 0x8, addend: 0x0, symName: __ZNSt3__118__debug_db_erase_cB7v160006INS_6vectorIP14RequiredCourseNS_9allocatorIS3_EEEEEEvPT_, symObjAddr: 0x8DB4, symBinAddr: 0x10000ACCC, symSize: 0x10 }
  - { offsetInCU: 0xBEA1, offset: 0xBEA1, size: 0x8, addend: 0x0, symName: __ZNSt3__112__to_addressB7v160006IP14RequiredCourseEEPT_S4_, symObjAddr: 0x8ED0, symBinAddr: 0x10000ADE8, symSize: 0x14 }
  - { offsetInCU: 0xBED6, offset: 0xBED6, size: 0x8, addend: 0x0, symName: __ZNSt3__112__to_addressB7v160006IcEEPT_S2_, symObjAddr: 0x913C, symBinAddr: 0x10000B054, symSize: 0x14 }
  - { offsetInCU: 0xBF0B, offset: 0xBF0B, size: 0x8, addend: 0x0, symName: __ZNSt3__14copyB7v160006IPKcPcEET0_T_S5_S4_, symObjAddr: 0x94D4, symBinAddr: 0x10000B3EC, symSize: 0x40 }
  - { offsetInCU: 0xBF65, offset: 0xBF65, size: 0x8, addend: 0x0, symName: __ZNSt3__16__copyB7v160006INS_17_ClassicAlgPolicyEPKcS3_PcEENS_4pairIT0_T2_EES6_T1_S7_, symObjAddr: 0x9514, symBinAddr: 0x10000B42C, symSize: 0x44 }
  - { offsetInCU: 0xBFD1, offset: 0xBFD1, size: 0x8, addend: 0x0, symName: __ZNSt3__123__dispatch_copy_or_moveB7v160006INS_17_ClassicAlgPolicyENS_11__copy_loopIS1_EENS_14__copy_trivialEPKcS6_PcEENS_4pairIT2_T4_EES9_T3_SA_, symObjAddr: 0x9558, symBinAddr: 0x10000B470, symSize: 0x54 }
  - { offsetInCU: 0xC04F, offset: 0xC04F, size: 0x8, addend: 0x0, symName: __ZNSt3__121__unwrap_and_dispatchB7v160006INS_10__overloadINS_11__copy_loopINS_17_ClassicAlgPolicyEEENS_14__copy_trivialEEEPKcS8_PcLi0EEENS_4pairIT0_T2_EESB_T1_SC_, symObjAddr: 0x95AC, symBinAddr: 0x10000B4C4, symSize: 0xB4 }
  - { offsetInCU: 0xC0DD, offset: 0xC0DD, size: 0x8, addend: 0x0, symName: __ZNSt3__114__unwrap_rangeB7v160006IPKcS2_EENS_4pairIT0_S4_EET_S6_, symObjAddr: 0x9660, symBinAddr: 0x10000B578, symSize: 0x60 }
  - { offsetInCU: 0xC21C, offset: 0xC21C, size: 0x8, addend: 0x0, symName: __ZNSt3__113__unwrap_iterB7v160006IPcNS_18__unwrap_iter_implIS1_Lb1EEELi0EEEDTclsrT0_8__unwrapclsr3stdE7declvalIT_EEEES5_, symObjAddr: 0x9708, symBinAddr: 0x10000B620, symSize: 0x24 }
  - { offsetInCU: 0xC260, offset: 0xC260, size: 0x8, addend: 0x0, symName: __ZNSt3__19make_pairB7v160006IPKcPcEENS_4pairINS_18__unwrap_ref_decayIT_E4typeENS5_IT0_E4typeEEEOS6_OS9_, symObjAddr: 0x972C, symBinAddr: 0x10000B644, symSize: 0x38 }
  - { offsetInCU: 0xC2AF, offset: 0xC2AF, size: 0x8, addend: 0x0, symName: __ZNSt3__114__rewrap_rangeB7v160006IPKcS2_EET_S3_T0_, symObjAddr: 0x9764, symBinAddr: 0x10000B67C, symSize: 0x2C }
  - { offsetInCU: 0xC2FB, offset: 0xC2FB, size: 0x8, addend: 0x0, symName: __ZNSt3__113__rewrap_iterB7v160006IPcS1_NS_18__unwrap_iter_implIS1_Lb1EEEEET_S4_T0_, symObjAddr: 0x9790, symBinAddr: 0x10000B6A8, symSize: 0x50 }
  - { offsetInCU: 0xC350, offset: 0xC350, size: 0x8, addend: 0x0, symName: __ZNSt3__19make_pairB7v160006IPKcS2_EENS_4pairINS_18__unwrap_ref_decayIT_E4typeENS4_IT0_E4typeEEEOS5_OS8_, symObjAddr: 0x97E0, symBinAddr: 0x10000B6F8, symSize: 0x38 }
  - { offsetInCU: 0xC39F, offset: 0xC39F, size: 0x8, addend: 0x0, symName: __ZNSt3__113__unwrap_iterB7v160006IPKcNS_18__unwrap_iter_implIS2_Lb1EEELi0EEEDTclsrT0_8__unwrapclsr3stdE7declvalIT_EEEES6_, symObjAddr: 0x9818, symBinAddr: 0x10000B730, symSize: 0x24 }
  - { offsetInCU: 0xC4E3, offset: 0xC4E3, size: 0x8, addend: 0x0, symName: __ZNSt3__119__copy_trivial_implB7v160006IKccEENS_4pairIPT_PT0_EES4_S4_S6_, symObjAddr: 0x98D0, symBinAddr: 0x10000B7E8, symSize: 0x7C }
  - { offsetInCU: 0xC54B, offset: 0xC54B, size: 0x8, addend: 0x0, symName: __ZNSt3__19make_pairB7v160006IRPKcPcEENS_4pairINS_18__unwrap_ref_decayIT_E4typeENS6_IT0_E4typeEEEOS7_OSA_, symObjAddr: 0x994C, symBinAddr: 0x10000B864, symSize: 0x38 }
  - { offsetInCU: 0xC5ED, offset: 0xC5ED, size: 0x8, addend: 0x0, symName: __ZNSt3__113__rewrap_iterB7v160006IPKcS2_NS_18__unwrap_iter_implIS2_Lb1EEEEET_S5_T0_, symObjAddr: 0x9A18, symBinAddr: 0x10000B930, symSize: 0x50 }
  - { offsetInCU: 0xC642, offset: 0xC642, size: 0x8, addend: 0x0, symName: __ZNSt3__16fill_nB7v160006IPcmcEET_S2_T0_RKT1_, symObjAddr: 0x9AF8, symBinAddr: 0x10000BA10, symSize: 0x44 }
  - { offsetInCU: 0xC6A5, offset: 0xC6A5, size: 0x8, addend: 0x0, symName: __ZNSt3__18__fill_nB7v160006IPcmcEET_S2_T0_RKT1_, symObjAddr: 0x9B3C, symBinAddr: 0x10000BA54, symSize: 0x64 }
  - { offsetInCU: 0xC708, offset: 0xC708, size: 0x8, addend: 0x0, symName: __ZNSt3__121__convert_to_integralB7v160006Em, symObjAddr: 0x9BA0, symBinAddr: 0x10000BAB8, symSize: 0x14 }
  - { offsetInCU: 0xC734, offset: 0xC734, size: 0x8, addend: 0x0, symName: __ZNSt3__118__constexpr_memcmpB7v160006IcEEiPKT_S3_m, symObjAddr: 0x9CE4, symBinAddr: 0x10000BBFC, symSize: 0x34 }
  - { offsetInCU: 0xC785, offset: 0xC785, size: 0x8, addend: 0x0, symName: __ZNSt3__119__allocate_at_leastB7v160006INS_9allocatorIP6EventsEEEENS_19__allocation_resultINS_16allocator_traitsIT_E7pointerEEERS7_m, symObjAddr: 0xA48C, symBinAddr: 0x10000C3A4, symSize: 0x40 }
  - { offsetInCU: 0xC7C8, offset: 0xC7C8, size: 0x8, addend: 0x0, symName: __ZNSt3__142__uninitialized_allocator_move_if_noexceptB7v160006INS_9allocatorIP6EventsEENS_16reverse_iteratorIPS3_EES7_S3_vEET1_RT_T0_SB_S8_, symObjAddr: 0xA66C, symBinAddr: 0x10000C584, symSize: 0xE8 }
  - { offsetInCU: 0xC845, offset: 0xC845, size: 0x8, addend: 0x0, symName: __ZNSt3__14swapB7v160006IPP6EventsEEvRT_S5_, symObjAddr: 0xA7A0, symBinAddr: 0x10000C6B8, symSize: 0x3C }
  - { offsetInCU: 0xC896, offset: 0xC896, size: 0x8, addend: 0x0, symName: __ZNSt3__125__debug_db_invalidate_allB7v160006INS_6vectorIP6EventsNS_9allocatorIS3_EEEEEEvPT_, symObjAddr: 0xA888, symBinAddr: 0x10000C7A0, symSize: 0x10 }
  - { offsetInCU: 0xC8C7, offset: 0xC8C7, size: 0x8, addend: 0x0, symName: __ZNSt3__1neB7v160006IPP6EventsS3_EEbRKNS_16reverse_iteratorIT_EERKNS4_IT0_EE, symObjAddr: 0xA898, symBinAddr: 0x10000C7B0, symSize: 0x48 }
  - { offsetInCU: 0xC938, offset: 0xC938, size: 0x8, addend: 0x0, symName: __ZNSt3__114__construct_atB7v160006IP6EventsJS2_EPS2_EEPT_S5_DpOT0_, symObjAddr: 0xA8E0, symBinAddr: 0x10000C7F8, symSize: 0x2C }
  - { offsetInCU: 0xC9A8, offset: 0xC9A8, size: 0x8, addend: 0x0, symName: __ZNSt3__112__to_addressB7v160006INS_16reverse_iteratorIPP6EventsEEvEENS_5decayIDTclsr19__to_address_helperIT_EE6__callclsr3stdE7declvalIRKS7_EEEEE4typeES9_, symObjAddr: 0xA90C, symBinAddr: 0x10000C824, symSize: 0x24 }
  - { offsetInCU: 0xC9DE, offset: 0xC9DE, size: 0x8, addend: 0x0, symName: __ZNSt3__14moveB7v160006INS_16reverse_iteratorIPP6EventsEES5_EET0_T_S7_S6_, symObjAddr: 0xA978, symBinAddr: 0x10000C890, symSize: 0x78 }
  - { offsetInCU: 0xCA61, offset: 0xCA61, size: 0x8, addend: 0x0, symName: __ZNSt3__16__moveB7v160006INS_17_ClassicAlgPolicyENS_16reverse_iteratorIPP6EventsEES6_S6_EENS_4pairIT0_T2_EES8_T1_S9_, symObjAddr: 0xAA60, symBinAddr: 0x10000C978, symSize: 0x64 }
  - { offsetInCU: 0xCACD, offset: 0xCACD, size: 0x8, addend: 0x0, symName: __ZNSt3__123__dispatch_copy_or_moveB7v160006INS_17_ClassicAlgPolicyENS_11__move_loopIS1_EENS_14__move_trivialENS_16reverse_iteratorIPP6EventsEES9_S9_EENS_4pairIT2_T4_EESB_T3_SC_, symObjAddr: 0xAAC4, symBinAddr: 0x10000C9DC, symSize: 0x7C }
  - { offsetInCU: 0xCB4B, offset: 0xCB4B, size: 0x8, addend: 0x0, symName: __ZNSt3__121__unwrap_and_dispatchB7v160006INS_10__overloadINS_11__move_loopINS_17_ClassicAlgPolicyEEENS_14__move_trivialEEENS_16reverse_iteratorIPP6EventsEESB_SB_Li0EEENS_4pairIT0_T2_EESD_T1_SE_, symObjAddr: 0xAB40, symBinAddr: 0x10000CA58, symSize: 0x12C }
  - { offsetInCU: 0xCBDB, offset: 0xCBDB, size: 0x8, addend: 0x0, symName: __ZNSt3__114__unwrap_rangeB7v160006INS_16reverse_iteratorIPP6EventsEES5_EENS_4pairIT0_S7_EET_S9_, symObjAddr: 0xAC6C, symBinAddr: 0x10000CB84, symSize: 0x84 }
  - { offsetInCU: 0xCCD4, offset: 0xCCD4, size: 0x8, addend: 0x0, symName: __ZNSt3__113__unwrap_iterB7v160006INS_16reverse_iteratorIPP6EventsEENS_18__unwrap_iter_implIS5_Lb0EEELi0EEEDTclsrT0_8__unwrapclsr3stdE7declvalIT_EEEES9_, symObjAddr: 0xAD90, symBinAddr: 0x10000CCA8, symSize: 0x44 }
  - { offsetInCU: 0xCD18, offset: 0xCD18, size: 0x8, addend: 0x0, symName: __ZNSt3__19make_pairB7v160006INS_16reverse_iteratorIPP6EventsEES5_EENS_4pairINS_18__unwrap_ref_decayIT_E4typeENS7_IT0_E4typeEEEOS8_OSB_, symObjAddr: 0xADD4, symBinAddr: 0x10000CCEC, symSize: 0x38 }
  - { offsetInCU: 0xCD67, offset: 0xCD67, size: 0x8, addend: 0x0, symName: __ZNSt3__114__rewrap_rangeB7v160006INS_16reverse_iteratorIPP6EventsEES5_EET_S6_T0_, symObjAddr: 0xAE0C, symBinAddr: 0x10000CD24, symSize: 0x5C }
  - { offsetInCU: 0xCDB3, offset: 0xCDB3, size: 0x8, addend: 0x0, symName: __ZNSt3__113__rewrap_iterB7v160006INS_16reverse_iteratorIPP6EventsEES5_NS_18__unwrap_iter_implIS5_Lb0EEEEET_S8_T0_, symObjAddr: 0xAE68, symBinAddr: 0x10000CD80, symSize: 0x88 }
  - { offsetInCU: 0xCE74, offset: 0xCE74, size: 0x8, addend: 0x0, symName: __ZNSt3__119__allocate_at_leastB7v160006INS_9allocatorIP14RequiredCourseEEEENS_19__allocation_resultINS_16allocator_traitsIT_E7pointerEEERS7_m, symObjAddr: 0xB96C, symBinAddr: 0x10000D884, symSize: 0x40 }
  - { offsetInCU: 0xCEB7, offset: 0xCEB7, size: 0x8, addend: 0x0, symName: __ZNSt3__142__uninitialized_allocator_move_if_noexceptB7v160006INS_9allocatorIP14RequiredCourseEENS_16reverse_iteratorIPS3_EES7_S3_vEET1_RT_T0_SB_S8_, symObjAddr: 0xBB4C, symBinAddr: 0x10000DA64, symSize: 0xE8 }
  - { offsetInCU: 0xCF34, offset: 0xCF34, size: 0x8, addend: 0x0, symName: __ZNSt3__14swapB7v160006IPP14RequiredCourseEEvRT_S5_, symObjAddr: 0xBC80, symBinAddr: 0x10000DB98, symSize: 0x3C }
  - { offsetInCU: 0xCF85, offset: 0xCF85, size: 0x8, addend: 0x0, symName: __ZNSt3__125__debug_db_invalidate_allB7v160006INS_6vectorIP14RequiredCourseNS_9allocatorIS3_EEEEEEvPT_, symObjAddr: 0xBD68, symBinAddr: 0x10000DC80, symSize: 0x10 }
  - { offsetInCU: 0xCFB6, offset: 0xCFB6, size: 0x8, addend: 0x0, symName: __ZNSt3__1neB7v160006IPP14RequiredCourseS3_EEbRKNS_16reverse_iteratorIT_EERKNS4_IT0_EE, symObjAddr: 0xBD78, symBinAddr: 0x10000DC90, symSize: 0x48 }
  - { offsetInCU: 0xD027, offset: 0xD027, size: 0x8, addend: 0x0, symName: __ZNSt3__114__construct_atB7v160006IP14RequiredCourseJS2_EPS2_EEPT_S5_DpOT0_, symObjAddr: 0xBDC0, symBinAddr: 0x10000DCD8, symSize: 0x2C }
  - { offsetInCU: 0xD097, offset: 0xD097, size: 0x8, addend: 0x0, symName: __ZNSt3__112__to_addressB7v160006INS_16reverse_iteratorIPP14RequiredCourseEEvEENS_5decayIDTclsr19__to_address_helperIT_EE6__callclsr3stdE7declvalIRKS7_EEEEE4typeES9_, symObjAddr: 0xBDEC, symBinAddr: 0x10000DD04, symSize: 0x24 }
  - { offsetInCU: 0xD0CD, offset: 0xD0CD, size: 0x8, addend: 0x0, symName: __ZNSt3__14moveB7v160006INS_16reverse_iteratorIPP14RequiredCourseEES5_EET0_T_S7_S6_, symObjAddr: 0xBE58, symBinAddr: 0x10000DD70, symSize: 0x78 }
  - { offsetInCU: 0xD150, offset: 0xD150, size: 0x8, addend: 0x0, symName: __ZNSt3__16__moveB7v160006INS_17_ClassicAlgPolicyENS_16reverse_iteratorIPP14RequiredCourseEES6_S6_EENS_4pairIT0_T2_EES8_T1_S9_, symObjAddr: 0xBF40, symBinAddr: 0x10000DE58, symSize: 0x64 }
  - { offsetInCU: 0xD1BC, offset: 0xD1BC, size: 0x8, addend: 0x0, symName: __ZNSt3__123__dispatch_copy_or_moveB7v160006INS_17_ClassicAlgPolicyENS_11__move_loopIS1_EENS_14__move_trivialENS_16reverse_iteratorIPP14RequiredCourseEES9_S9_EENS_4pairIT2_T4_EESB_T3_SC_, symObjAddr: 0xBFA4, symBinAddr: 0x10000DEBC, symSize: 0x7C }
  - { offsetInCU: 0xD23A, offset: 0xD23A, size: 0x8, addend: 0x0, symName: __ZNSt3__121__unwrap_and_dispatchB7v160006INS_10__overloadINS_11__move_loopINS_17_ClassicAlgPolicyEEENS_14__move_trivialEEENS_16reverse_iteratorIPP14RequiredCourseEESB_SB_Li0EEENS_4pairIT0_T2_EESD_T1_SE_, symObjAddr: 0xC020, symBinAddr: 0x10000DF38, symSize: 0x12C }
  - { offsetInCU: 0xD2CA, offset: 0xD2CA, size: 0x8, addend: 0x0, symName: __ZNSt3__114__unwrap_rangeB7v160006INS_16reverse_iteratorIPP14RequiredCourseEES5_EENS_4pairIT0_S7_EET_S9_, symObjAddr: 0xC14C, symBinAddr: 0x10000E064, symSize: 0x84 }
  - { offsetInCU: 0xD3C3, offset: 0xD3C3, size: 0x8, addend: 0x0, symName: __ZNSt3__113__unwrap_iterB7v160006INS_16reverse_iteratorIPP14RequiredCourseEENS_18__unwrap_iter_implIS5_Lb0EEELi0EEEDTclsrT0_8__unwrapclsr3stdE7declvalIT_EEEES9_, symObjAddr: 0xC270, symBinAddr: 0x10000E188, symSize: 0x44 }
  - { offsetInCU: 0xD407, offset: 0xD407, size: 0x8, addend: 0x0, symName: __ZNSt3__19make_pairB7v160006INS_16reverse_iteratorIPP14RequiredCourseEES5_EENS_4pairINS_18__unwrap_ref_decayIT_E4typeENS7_IT0_E4typeEEEOS8_OSB_, symObjAddr: 0xC2B4, symBinAddr: 0x10000E1CC, symSize: 0x38 }
  - { offsetInCU: 0xD456, offset: 0xD456, size: 0x8, addend: 0x0, symName: __ZNSt3__114__rewrap_rangeB7v160006INS_16reverse_iteratorIPP14RequiredCourseEES5_EET_S6_T0_, symObjAddr: 0xC2EC, symBinAddr: 0x10000E204, symSize: 0x5C }
  - { offsetInCU: 0xD4A2, offset: 0xD4A2, size: 0x8, addend: 0x0, symName: __ZNSt3__113__rewrap_iterB7v160006INS_16reverse_iteratorIPP14RequiredCourseEES5_NS_18__unwrap_iter_implIS5_Lb0EEEEET_S8_T0_, symObjAddr: 0xC348, symBinAddr: 0x10000E260, symSize: 0x88 }
  - { offsetInCU: 0xD80F, offset: 0xD80F, size: 0x8, addend: 0x0, symName: __ZSt28__throw_bad_array_new_lengthB7v160006v, symObjAddr: 0x5F68, symBinAddr: 0x100007E80, symSize: 0x34 }
  - { offsetInCU: 0xD9D4, offset: 0xD9D4, size: 0x8, addend: 0x0, symName: __ZN6Course9courseCntE, symObjAddr: 0x585E8, symBinAddr: 0x100014004, symSize: 0x0 }
  - { offsetInCU: 0xD9E7, offset: 0xD9E7, size: 0x8, addend: 0x0, symName: __ZN14RequiredCourse11requiredCntE, symObjAddr: 0x585EC, symBinAddr: 0x100014008, symSize: 0x0 }
  - { offsetInCU: 0xDE42, offset: 0xDE42, size: 0x8, addend: 0x0, symName: __ZNSt3__16vectorIP6CourseNS_9allocatorIS2_EEE26__swap_out_circular_bufferERNS_14__split_bufferIS2_RS4_EE, symObjAddr: 0x7060, symBinAddr: 0x100008F78, symSize: 0x118 }
  - { offsetInCU: 0xE285, offset: 0xE285, size: 0x8, addend: 0x0, symName: __ZNSt3__16vectorIP6EventsNS_9allocatorIS2_EEE26__swap_out_circular_bufferERNS_14__split_bufferIS2_RS4_EE, symObjAddr: 0xA110, symBinAddr: 0x10000C028, symSize: 0x118 }
  - { offsetInCU: 0xE2DC, offset: 0xE2DC, size: 0x8, addend: 0x0, symName: __ZNSt3__16vectorIP14RequiredCourseNS_9allocatorIS2_EEE26__swap_out_circular_bufferERNS_14__split_bufferIS2_RS4_EE, symObjAddr: 0xB5F0, symBinAddr: 0x10000D508, symSize: 0x118 }
  - { offsetInCU: 0x10521, offset: 0x10521, size: 0x8, addend: 0x0, symName: __ZN6Events12getEventNameEv, symObjAddr: 0x0, symBinAddr: 0x100001F18, symSize: 0x3C }
  - { offsetInCU: 0x10548, offset: 0x10548, size: 0x8, addend: 0x0, symName: __ZN6Events14getEventDetailEv, symObjAddr: 0x3C, symBinAddr: 0x100001F54, symSize: 0x3C }
  - { offsetInCU: 0x1056F, offset: 0x1056F, size: 0x8, addend: 0x0, symName: __ZNK6Events13eventHappenedERiS0_, symObjAddr: 0x78, symBinAddr: 0x100001F90, symSize: 0x8C }
  - { offsetInCU: 0x105B2, offset: 0x105B2, size: 0x8, addend: 0x0, symName: __ZNSt3__113basic_ostreamIcNS_11char_traitsIcEEElsB7v160006EPFRS3_S4_E, symObjAddr: 0x14C, symBinAddr: 0x100002064, symSize: 0x2C }
  - { offsetInCU: 0x105E6, offset: 0x105E6, size: 0x8, addend: 0x0, symName: __ZN6CourseC2EiNSt3__112basic_stringIcNS0_11char_traitsIcEENS0_9allocatorIcEEEEiidb, symObjAddr: 0x21C, symBinAddr: 0x100002134, symSize: 0xE8 }
  - { offsetInCU: 0x10666, offset: 0x10666, size: 0x8, addend: 0x0, symName: __ZNKSt3__112basic_stringIcNS_11char_traitsIcEENS_9allocatorIcEEE6lengthB7v160006Ev, symObjAddr: 0x304, symBinAddr: 0x10000221C, symSize: 0x24 }
  - { offsetInCU: 0x1068C, offset: 0x1068C, size: 0x8, addend: 0x0, symName: __ZN6CourseC1EiNSt3__112basic_stringIcNS0_11char_traitsIcEENS0_9allocatorIcEEEEiidb, symObjAddr: 0x328, symBinAddr: 0x100002240, symSize: 0x68 }
  - { offsetInCU: 0x1070C, offset: 0x1070C, size: 0x8, addend: 0x0, symName: __ZNK6Course8printAllEv, symObjAddr: 0x390, symBinAddr: 0x1000022A8, symSize: 0xC4 }
  - { offsetInCU: 0x10733, offset: 0x10733, size: 0x8, addend: 0x0, symName: __ZNK6Course17printIdNameCreditEv, symObjAddr: 0x454, symBinAddr: 0x10000236C, symSize: 0xE4 }
  - { offsetInCU: 0x10785, offset: 0x10785, size: 0x8, addend: 0x0, symName: __ZNK6Course11printIdNameEv, symObjAddr: 0x538, symBinAddr: 0x100002450, symSize: 0x58 }
  - { offsetInCU: 0x107AC, offset: 0x107AC, size: 0x8, addend: 0x0, symName: __ZN6Course10printTitleEv, symObjAddr: 0x590, symBinAddr: 0x1000024A8, symSize: 0x5C }
  - { offsetInCU: 0x107C1, offset: 0x107C1, size: 0x8, addend: 0x0, symName: __ZN6Course13printINCTitleEv, symObjAddr: 0x5EC, symBinAddr: 0x100002504, symSize: 0xA8 }
  - { offsetInCU: 0x10802, offset: 0x10802, size: 0x8, addend: 0x0, symName: __ZN6Course11changeScoreEi, symObjAddr: 0x694, symBinAddr: 0x1000025AC, symSize: 0x28 }
  - { offsetInCU: 0x10837, offset: 0x10837, size: 0x8, addend: 0x0, symName: __ZN6Course4initEv, symObjAddr: 0x6BC, symBinAddr: 0x1000025D4, symSize: 0x14 }
  - { offsetInCU: 0x1084C, offset: 0x1084C, size: 0x8, addend: 0x0, symName: __ZN14RequiredCourseC2ENSt3__112basic_stringIcNS0_11char_traitsIcEENS0_9allocatorIcEEEEiii, symObjAddr: 0x6D0, symBinAddr: 0x1000025E8, symSize: 0xC8 }
  - { offsetInCU: 0x108B0, offset: 0x108B0, size: 0x8, addend: 0x0, symName: __ZN14RequiredCourseC1ENSt3__112basic_stringIcNS0_11char_traitsIcEENS0_9allocatorIcEEEEiii, symObjAddr: 0x7A4, symBinAddr: 0x1000026BC, symSize: 0x4C }
  - { offsetInCU: 0x10914, offset: 0x10914, size: 0x8, addend: 0x0, symName: __ZN14RequiredCourse4initEv, symObjAddr: 0x7F0, symBinAddr: 0x100002708, symSize: 0x1C }
  - { offsetInCU: 0x10B3C, offset: 0x10B3C, size: 0x8, addend: 0x0, symName: __ZN6PlayerC2ENSt3__112basic_stringIcNS0_11char_traitsIcEENS0_9allocatorIcEEEE, symObjAddr: 0x80C, symBinAddr: 0x100002724, symSize: 0xBC }
  - { offsetInCU: 0x10B76, offset: 0x10B76, size: 0x8, addend: 0x0, symName: __ZNSt3__16vectorIP6CourseNS_9allocatorIS2_EEEC1B7v160006Ev, symObjAddr: 0x8C8, symBinAddr: 0x1000027E0, symSize: 0x2C }
  - { offsetInCU: 0x10BA0, offset: 0x10BA0, size: 0x8, addend: 0x0, symName: __ZNSt3__16vectorIP6CourseNS_9allocatorIS2_EEED1B7v160006Ev, symObjAddr: 0x8F4, symBinAddr: 0x10000280C, symSize: 0x2C }
  - { offsetInCU: 0x10BCA, offset: 0x10BCA, size: 0x8, addend: 0x0, symName: __ZN6PlayerC1ENSt3__112basic_stringIcNS0_11char_traitsIcEENS0_9allocatorIcEEEE, symObjAddr: 0x920, symBinAddr: 0x100002838, symSize: 0x34 }
  - { offsetInCU: 0x10C04, offset: 0x10C04, size: 0x8, addend: 0x0, symName: __ZN6Player13getBasicscoreEv, symObjAddr: 0x954, symBinAddr: 0x10000286C, symSize: 0x30 }
  - { offsetInCU: 0x10C2C, offset: 0x10C2C, size: 0x8, addend: 0x0, symName: __ZN6Player9addcourseER6Course, symObjAddr: 0x984, symBinAddr: 0x10000289C, symSize: 0x94 }
  - { offsetInCU: 0x10C77, offset: 0x10C77, size: 0x8, addend: 0x0, symName: __ZN6CourseC1ERKS_, symObjAddr: 0xA18, symBinAddr: 0x100002930, symSize: 0x34 }
  - { offsetInCU: 0x10CAC, offset: 0x10CAC, size: 0x8, addend: 0x0, symName: __ZNSt3__16vectorIP6CourseNS_9allocatorIS2_EEE9push_backB7v160006ERKS2_, symObjAddr: 0xA4C, symBinAddr: 0x100002964, symSize: 0x6C }
  - { offsetInCU: 0x10CE3, offset: 0x10CE3, size: 0x8, addend: 0x0, symName: __ZNK6Course9getCreditEv, symObjAddr: 0xAB8, symBinAddr: 0x1000029D0, symSize: 0x18 }
  - { offsetInCU: 0x10D09, offset: 0x10D09, size: 0x8, addend: 0x0, symName: __ZN6Player13addPasscourseER6Course, symObjAddr: 0xAD0, symBinAddr: 0x1000029E8, symSize: 0x7C }
  - { offsetInCU: 0x10D4F, offset: 0x10D4F, size: 0x8, addend: 0x0, symName: __ZN6Player11clearcourseEv, symObjAddr: 0xB4C, symBinAddr: 0x100002A64, symSize: 0x44 }
  - { offsetInCU: 0x10D77, offset: 0x10D77, size: 0x8, addend: 0x0, symName: __ZNSt3__16vectorIP6CourseNS_9allocatorIS2_EEE5clearB7v160006Ev, symObjAddr: 0xB90, symBinAddr: 0x100002AA8, symSize: 0x4C }
  - { offsetInCU: 0x10DAC, offset: 0x10DAC, size: 0x8, addend: 0x0, symName: __ZN6Player10changeMoodEi, symObjAddr: 0xBDC, symBinAddr: 0x100002AF4, symSize: 0x10C }
  - { offsetInCU: 0x10DE3, offset: 0x10DE3, size: 0x8, addend: 0x0, symName: __ZN6Player11changeScoreEii, symObjAddr: 0xCE8, symBinAddr: 0x100002C00, symSize: 0x2BC }
  - { offsetInCU: 0x10E3E, offset: 0x10E3E, size: 0x8, addend: 0x0, symName: __ZNKSt3__16vectorIP6CourseNS_9allocatorIS2_EEE4sizeB7v160006Ev, symObjAddr: 0xFA4, symBinAddr: 0x100002EBC, symSize: 0x28 }
  - { offsetInCU: 0x10E64, offset: 0x10E64, size: 0x8, addend: 0x0, symName: __ZNSt3__16vectorIP6CourseNS_9allocatorIS2_EEEixB7v160006Em, symObjAddr: 0xFCC, symBinAddr: 0x100002EE4, symSize: 0x24 }
  - { offsetInCU: 0x10E9B, offset: 0x10E9B, size: 0x8, addend: 0x0, symName: __ZNK6Course5getIDEv, symObjAddr: 0xFF0, symBinAddr: 0x100002F08, symSize: 0x18 }
  - { offsetInCU: 0x10EC1, offset: 0x10EC1, size: 0x8, addend: 0x0, symName: __ZNK6Course7getNameEv, symObjAddr: 0x1008, symBinAddr: 0x100002F20, symSize: 0x3C }
  - { offsetInCU: 0x10EE7, offset: 0x10EE7, size: 0x8, addend: 0x0, symName: __ZNK6Course8getScoreEv, symObjAddr: 0x1044, symBinAddr: 0x100002F5C, symSize: 0x18 }
  - { offsetInCU: 0x10F0D, offset: 0x10F0D, size: 0x8, addend: 0x0, symName: __ZN6Player14changeAllScoreEi, symObjAddr: 0x105C, symBinAddr: 0x100002F74, symSize: 0x240 }
  - { offsetInCU: 0x10F59, offset: 0x10F59, size: 0x8, addend: 0x0, symName: __ZN6Player13countpassfailEv, symObjAddr: 0x129C, symBinAddr: 0x1000031B4, symSize: 0x1B0 }
  - { offsetInCU: 0x10FCC, offset: 0x10FCC, size: 0x8, addend: 0x0, symName: __ZN6Player4moveEi, symObjAddr: 0x144C, symBinAddr: 0x100003364, symSize: 0x28 }
  - { offsetInCU: 0x11003, offset: 0x11003, size: 0x8, addend: 0x0, symName: __ZN6Player10moveToWeekEi, symObjAddr: 0x1474, symBinAddr: 0x10000338C, symSize: 0x20 }
  - { offsetInCU: 0x1103A, offset: 0x1103A, size: 0x8, addend: 0x0, symName: __ZNK6Player8randomIDEv, symObjAddr: 0x1494, symBinAddr: 0x1000033AC, symSize: 0x74 }
  - { offsetInCU: 0x11080, offset: 0x11080, size: 0x8, addend: 0x0, symName: __ZNKSt3__16vectorIP6CourseNS_9allocatorIS2_EEEixB7v160006Em, symObjAddr: 0x1508, symBinAddr: 0x100003420, symSize: 0x24 }
  - { offsetInCU: 0x110B7, offset: 0x110B7, size: 0x8, addend: 0x0, symName: __ZNK6Player11printCourseEv, symObjAddr: 0x152C, symBinAddr: 0x100003444, symSize: 0x80 }
  - { offsetInCU: 0x110FD, offset: 0x110FD, size: 0x8, addend: 0x0, symName: __ZNK6Player7idExistEi, symObjAddr: 0x15AC, symBinAddr: 0x1000034C4, symSize: 0xD0 }
  - { offsetInCU: 0x11152, offset: 0x11152, size: 0x8, addend: 0x0, symName: __ZNK6Player8isPassedEi, symObjAddr: 0x167C, symBinAddr: 0x100003594, symSize: 0xD0 }
  - { offsetInCU: 0x113EF, offset: 0x113EF, size: 0x8, addend: 0x0, symName: __ZN4GameC2EiiNSt3__112basic_stringIcNS0_11char_traitsIcEENS0_9allocatorIcEEEEi, symObjAddr: 0x174C, symBinAddr: 0x100003664, symSize: 0x404 }
  - { offsetInCU: 0x1146E, offset: 0x1146E, size: 0x8, addend: 0x0, symName: __ZNSt3__112basic_stringIcNS_11char_traitsIcEENS_9allocatorIcEEEC1B7v160006Ev, symObjAddr: 0x1B50, symBinAddr: 0x100003A68, symSize: 0x2C }
  - { offsetInCU: 0x11498, offset: 0x11498, size: 0x8, addend: 0x0, symName: __ZNSt3__16vectorIP6EventsNS_9allocatorIS2_EEEC1B7v160006Ev, symObjAddr: 0x1B7C, symBinAddr: 0x100003A94, symSize: 0x2C }
  - { offsetInCU: 0x114C2, offset: 0x114C2, size: 0x8, addend: 0x0, symName: __ZNSt3__16vectorIP14RequiredCourseNS_9allocatorIS2_EEEC1B7v160006Ev, symObjAddr: 0x1BA8, symBinAddr: 0x100003AC0, symSize: 0x2C }
  - { offsetInCU: 0x114EC, offset: 0x114EC, size: 0x8, addend: 0x0, symName: __ZNSt3__112basic_stringIcNS_11char_traitsIcEENS_9allocatorIcEEEaSB7v160006EPKc, symObjAddr: 0x1CF0, symBinAddr: 0x100003C08, symSize: 0x2C }
  - { offsetInCU: 0x11521, offset: 0x11521, size: 0x8, addend: 0x0, symName: __ZN6PlayerD1Ev, symObjAddr: 0x1D1C, symBinAddr: 0x100003C34, symSize: 0x2C }
  - { offsetInCU: 0x1154D, offset: 0x1154D, size: 0x8, addend: 0x0, symName: __ZNSt3__16vectorIP14RequiredCourseNS_9allocatorIS2_EEED1B7v160006Ev, symObjAddr: 0x1D48, symBinAddr: 0x100003C60, symSize: 0x2C }
  - { offsetInCU: 0x11577, offset: 0x11577, size: 0x8, addend: 0x0, symName: __ZNSt3__16vectorIP6EventsNS_9allocatorIS2_EEED1B7v160006Ev, symObjAddr: 0x1D74, symBinAddr: 0x100003C8C, symSize: 0x2C }
  - { offsetInCU: 0x115A1, offset: 0x115A1, size: 0x8, addend: 0x0, symName: __ZN4GameC1EiiNSt3__112basic_stringIcNS0_11char_traitsIcEENS0_9allocatorIcEEEEi, symObjAddr: 0x1DA0, symBinAddr: 0x100003CB8, symSize: 0x4C }
  - { offsetInCU: 0x1160A, offset: 0x1160A, size: 0x8, addend: 0x0, symName: __ZN4Game11printCourseEv, symObjAddr: 0x1DEC, symBinAddr: 0x100003D04, symSize: 0x138 }
  - { offsetInCU: 0x11650, offset: 0x11650, size: 0x8, addend: 0x0, symName: __ZNKSt3__16vectorIP14RequiredCourseNS_9allocatorIS2_EEE4sizeB7v160006Ev, symObjAddr: 0x1F24, symBinAddr: 0x100003E3C, symSize: 0x28 }
  - { offsetInCU: 0x11676, offset: 0x11676, size: 0x8, addend: 0x0, symName: __ZNSt3__16vectorIP14RequiredCourseNS_9allocatorIS2_EEEixB7v160006Em, symObjAddr: 0x1F4C, symBinAddr: 0x100003E64, symSize: 0x24 }
  - { offsetInCU: 0x116AD, offset: 0x116AD, size: 0x8, addend: 0x0, symName: __ZN14RequiredCourse11getSemesterEv, symObjAddr: 0x1F70, symBinAddr: 0x100003E88, symSize: 0x18 }
  - { offsetInCU: 0x116D3, offset: 0x116D3, size: 0x8, addend: 0x0, symName: __ZN4Game4diceEv, symObjAddr: 0x1F88, symBinAddr: 0x100003EA0, symSize: 0x2B4 }
  - { offsetInCU: 0x11719, offset: 0x11719, size: 0x8, addend: 0x0, symName: __ZNKSt3__19basic_iosIcNS_11char_traitsIcEEEcvPvB7v160006Ev, symObjAddr: 0x2550, symBinAddr: 0x100004468, symSize: 0x4C }
  - { offsetInCU: 0x11744, offset: 0x11744, size: 0x8, addend: 0x0, symName: __ZNSt3__112basic_stringIcNS_11char_traitsIcEENS_9allocatorIcEEEC1B7v160006IDnEEPKc, symObjAddr: 0x26E4, symBinAddr: 0x1000045FC, symSize: 0x34 }
  - { offsetInCU: 0x11782, offset: 0x11782, size: 0x8, addend: 0x0, symName: __ZNK6Player7getWeekEv, symObjAddr: 0x2718, symBinAddr: 0x100004630, symSize: 0x18 }
  - { offsetInCU: 0x117A8, offset: 0x117A8, size: 0x8, addend: 0x0, symName: __ZN4Game8printMapEv, symObjAddr: 0x2730, symBinAddr: 0x100004648, symSize: 0x2B8 }
  - { offsetInCU: 0x11857, offset: 0x11857, size: 0x8, addend: 0x0, symName: __ZN4Game5eventEv, symObjAddr: 0x29E8, symBinAddr: 0x100004900, symSize: 0x1F4 }
  - { offsetInCU: 0x118CA, offset: 0x118CA, size: 0x8, addend: 0x0, symName: __ZNKSt3__16vectorIP6EventsNS_9allocatorIS2_EEE4sizeB7v160006Ev, symObjAddr: 0x2BDC, symBinAddr: 0x100004AF4, symSize: 0x28 }
  - { offsetInCU: 0x118F0, offset: 0x118F0, size: 0x8, addend: 0x0, symName: __ZNSt3__16vectorIP6EventsNS_9allocatorIS2_EEEixB7v160006Em, symObjAddr: 0x2C04, symBinAddr: 0x100004B1C, symSize: 0x24 }
  - { offsetInCU: 0x11927, offset: 0x11927, size: 0x8, addend: 0x0, symName: __ZN4Game12nextSemesterEv, symObjAddr: 0x2C28, symBinAddr: 0x100004B40, symSize: 0x20 }
  - { offsetInCU: 0x1194F, offset: 0x1194F, size: 0x8, addend: 0x0, symName: __ZN4Game8miniGameEv, symObjAddr: 0x2C48, symBinAddr: 0x100004B60, symSize: 0x3F0 }
  - { offsetInCU: 0x119E5, offset: 0x119E5, size: 0x8, addend: 0x0, symName: __Z8makerandPi, symObjAddr: 0x3038, symBinAddr: 0x100004F50, symSize: 0x6C }
  - { offsetInCU: 0x11A2D, offset: 0x11A2D, size: 0x8, addend: 0x0, symName: __Z8strToIntPiNSt3__112basic_stringIcNS0_11char_traitsIcEENS0_9allocatorIcEEEE, symObjAddr: 0x30A4, symBinAddr: 0x100004FBC, symSize: 0xD0 }
  - { offsetInCU: 0x11A95, offset: 0x11A95, size: 0x8, addend: 0x0, symName: __Z8makecopyPiS_, symObjAddr: 0x3174, symBinAddr: 0x10000508C, symSize: 0x5C }
  - { offsetInCU: 0x11AED, offset: 0x11AED, size: 0x8, addend: 0x0, symName: __Z5findAPiS_, symObjAddr: 0x31D0, symBinAddr: 0x1000050E8, symSize: 0xA4 }
  - { offsetInCU: 0x11B58, offset: 0x11B58, size: 0x8, addend: 0x0, symName: __Z5findBPiS_, symObjAddr: 0x3274, symBinAddr: 0x10000518C, symSize: 0xD4 }
  - { offsetInCU: 0x11BE1, offset: 0x11BE1, size: 0x8, addend: 0x0, symName: __ZN4Game13countPassFailEv, symObjAddr: 0x3348, symBinAddr: 0x100005260, symSize: 0x50 }
  - { offsetInCU: 0x11C09, offset: 0x11C09, size: 0x8, addend: 0x0, symName: __ZN4Game6theEndEv, symObjAddr: 0x3398, symBinAddr: 0x1000052B0, symSize: 0xF0 }
  - { offsetInCU: 0x11C31, offset: 0x11C31, size: 0x8, addend: 0x0, symName: __ZN6Player14getTotalCreditEv, symObjAddr: 0x3488, symBinAddr: 0x1000053A0, symSize: 0x18 }
  - { offsetInCU: 0x11C57, offset: 0x11C57, size: 0x8, addend: 0x0, symName: __ZNK4Game7isWeek0Ev, symObjAddr: 0x34A0, symBinAddr: 0x1000053B8, symSize: 0x44 }
  - { offsetInCU: 0x11C7F, offset: 0x11C7F, size: 0x8, addend: 0x0, symName: __ZNK4Game5isMidEv, symObjAddr: 0x34E4, symBinAddr: 0x1000053FC, symSize: 0x58 }
  - { offsetInCU: 0x11CB6, offset: 0x11CB6, size: 0x8, addend: 0x0, symName: __ZNK4Game7isFinalEv, symObjAddr: 0x353C, symBinAddr: 0x100005454, symSize: 0x50 }
  - { offsetInCU: 0x11CDE, offset: 0x11CDE, size: 0x8, addend: 0x0, symName: __ZN4Game16addEventsDefaultENSt3__112basic_stringIcNS0_11char_traitsIcEENS0_9allocatorIcEEEES6_iii, symObjAddr: 0x358C, symBinAddr: 0x1000054A4, symSize: 0x158 }
  - { offsetInCU: 0x11DB1, offset: 0x11DB1, size: 0x8, addend: 0x0, symName: __ZN12EventDefaultC1ENSt3__112basic_stringIcNS0_11char_traitsIcEENS0_9allocatorIcEEEES6_iii, symObjAddr: 0x36E4, symBinAddr: 0x1000055FC, symSize: 0x54 }
  - { offsetInCU: 0x11E23, offset: 0x11E23, size: 0x8, addend: 0x0, symName: __ZNSt3__16vectorIP6EventsNS_9allocatorIS2_EEE9push_backB7v160006EOS2_, symObjAddr: 0x3738, symBinAddr: 0x100005650, symSize: 0x6C }
  - { offsetInCU: 0x11E5A, offset: 0x11E5A, size: 0x8, addend: 0x0, symName: __ZN4Game12addEventsOneENSt3__112basic_stringIcNS0_11char_traitsIcEENS0_9allocatorIcEEEES6_iiiii, symObjAddr: 0x37A4, symBinAddr: 0x1000056BC, symSize: 0x168 }
  - { offsetInCU: 0x11FA1, offset: 0x11FA1, size: 0x8, addend: 0x0, symName: __ZN8EventOneC1ENSt3__112basic_stringIcNS0_11char_traitsIcEENS0_9allocatorIcEEEES6_iiiii, symObjAddr: 0x390C, symBinAddr: 0x100005824, symSize: 0x64 }
  - { offsetInCU: 0x1202F, offset: 0x1202F, size: 0x8, addend: 0x0, symName: __ZN4Game17addRequiredCourseENSt3__112basic_stringIcNS0_11char_traitsIcEENS0_9allocatorIcEEEEiii, symObjAddr: 0x3970, symBinAddr: 0x100005888, symSize: 0x108 }
  - { offsetInCU: 0x120A3, offset: 0x120A3, size: 0x8, addend: 0x0, symName: __ZNSt3__16vectorIP14RequiredCourseNS_9allocatorIS2_EEE9push_backB7v160006ERKS2_, symObjAddr: 0x3A78, symBinAddr: 0x100005990, symSize: 0x6C }
  - { offsetInCU: 0x120DA, offset: 0x120DA, size: 0x8, addend: 0x0, symName: _main, symObjAddr: 0x3AE4, symBinAddr: 0x1000059FC, symSize: 0x994 }
  - { offsetInCU: 0x123B9, offset: 0x123B9, size: 0x8, addend: 0x0, symName: __ZNSt3__114basic_ifstreamIcNS_11char_traitsIcEEEC1Ev, symObjAddr: 0x4478, symBinAddr: 0x100006390, symSize: 0xF4 }
  - { offsetInCU: 0x123E5, offset: 0x123E5, size: 0x8, addend: 0x0, symName: __ZNK4Game11getSemesterEv, symObjAddr: 0x456C, symBinAddr: 0x100006484, symSize: 0x18 }
  - { offsetInCU: 0x1240B, offset: 0x1240B, size: 0x8, addend: 0x0, symName: __ZNSt3__114basic_ifstreamIcNS_11char_traitsIcEEE5closeEv, symObjAddr: 0x4584, symBinAddr: 0x10000649C, symSize: 0x58 }
  - { offsetInCU: 0x12438, offset: 0x12438, size: 0x8, addend: 0x0, symName: __ZNSt3__114basic_ifstreamIcNS_11char_traitsIcEEED1Ev, symObjAddr: 0x45DC, symBinAddr: 0x1000064F4, symSize: 0x70 }
  - { offsetInCU: 0x12465, offset: 0x12465, size: 0x8, addend: 0x0, symName: __ZN4GameD1Ev, symObjAddr: 0x464C, symBinAddr: 0x100006564, symSize: 0x2C }
  - { offsetInCU: 0x12492, offset: 0x12492, size: 0x8, addend: 0x0, symName: __ZNSt3__112basic_stringIcNS_11char_traitsIcEENS_9allocatorIcEEEixB7v160006Em, symObjAddr: 0x4678, symBinAddr: 0x100006590, symSize: 0x30 }
  - { offsetInCU: 0x124C7, offset: 0x124C7, size: 0x8, addend: 0x0, symName: __ZN6CourseC2ERKS_, symObjAddr: 0x46A8, symBinAddr: 0x1000065C0, symSize: 0x5C }
  - { offsetInCU: 0x124FC, offset: 0x124FC, size: 0x8, addend: 0x0, symName: __ZN6PlayerD2Ev, symObjAddr: 0x4704, symBinAddr: 0x10000661C, symSize: 0x98 }
  - { offsetInCU: 0x12528, offset: 0x12528, size: 0x8, addend: 0x0, symName: __ZN12EventDefaultC2ENSt3__112basic_stringIcNS0_11char_traitsIcEENS0_9allocatorIcEEEES6_iii, symObjAddr: 0x479C, symBinAddr: 0x1000066B4, symSize: 0xF0 }
  - { offsetInCU: 0x1259A, offset: 0x1259A, size: 0x8, addend: 0x0, symName: __ZN6EventsC2ENSt3__112basic_stringIcNS0_11char_traitsIcEENS0_9allocatorIcEEEES6_iii, symObjAddr: 0x488C, symBinAddr: 0x1000067A4, symSize: 0xB8 }
  - { offsetInCU: 0x1260C, offset: 0x1260C, size: 0x8, addend: 0x0, symName: __ZN8EventOneC2ENSt3__112basic_stringIcNS0_11char_traitsIcEENS0_9allocatorIcEEEES6_iiiii, symObjAddr: 0x4944, symBinAddr: 0x10000685C, symSize: 0x108 }
  - { offsetInCU: 0x1269A, offset: 0x1269A, size: 0x8, addend: 0x0, symName: __ZNK8EventOne13eventHappenedERiS0_, symObjAddr: 0x4A4C, symBinAddr: 0x100006964, symSize: 0x1E8 }
  - { offsetInCU: 0x126EA, offset: 0x126EA, size: 0x8, addend: 0x0, symName: __ZNSt3__111char_traitsIcE6lengthEPKc, symObjAddr: 0x4CF4, symBinAddr: 0x100006C0C, symSize: 0x48 }
  - { offsetInCU: 0x1270D, offset: 0x1270D, size: 0x8, addend: 0x0, symName: __ZNKSt3__112basic_stringIcNS_11char_traitsIcEENS_9allocatorIcEEE4sizeB7v160006Ev, symObjAddr: 0x4D3C, symBinAddr: 0x100006C54, symSize: 0x54 }
  - { offsetInCU: 0x12733, offset: 0x12733, size: 0x8, addend: 0x0, symName: __ZNKSt3__112basic_stringIcNS_11char_traitsIcEENS_9allocatorIcEEE9__is_longB7v160006Ev, symObjAddr: 0x4DB4, symBinAddr: 0x100006CCC, symSize: 0x74 }
  - { offsetInCU: 0x12759, offset: 0x12759, size: 0x8, addend: 0x0, symName: __ZNKSt3__112basic_stringIcNS_11char_traitsIcEENS_9allocatorIcEEE15__get_long_sizeB7v160006Ev, symObjAddr: 0x4E28, symBinAddr: 0x100006D40, symSize: 0x28 }
  - { offsetInCU: 0x1277F, offset: 0x1277F, size: 0x8, addend: 0x0, symName: __ZNKSt3__112basic_stringIcNS_11char_traitsIcEENS_9allocatorIcEEE16__get_short_sizeB7v160006Ev, symObjAddr: 0x4E50, symBinAddr: 0x100006D68, symSize: 0x34 }
  - { offsetInCU: 0x127A5, offset: 0x127A5, size: 0x8, addend: 0x0, symName: __ZNKSt3__117__compressed_pairINS_12basic_stringIcNS_11char_traitsIcEENS_9allocatorIcEEE5__repES5_E5firstB7v160006Ev, symObjAddr: 0x4E90, symBinAddr: 0x100006DA8, symSize: 0x24 }
  - { offsetInCU: 0x127CB, offset: 0x127CB, size: 0x8, addend: 0x0, symName: __ZNKSt3__122__compressed_pair_elemINS_12basic_stringIcNS_11char_traitsIcEENS_9allocatorIcEEE5__repELi0ELb0EE5__getB7v160006Ev, symObjAddr: 0x4EB4, symBinAddr: 0x100006DCC, symSize: 0x14 }
  - { offsetInCU: 0x127F1, offset: 0x127F1, size: 0x8, addend: 0x0, symName: __ZNSt3__114basic_ifstreamIcNS_11char_traitsIcEEED2Ev, symObjAddr: 0x4EC8, symBinAddr: 0x100006DE0, symSize: 0x9C }
  - { offsetInCU: 0x1282B, offset: 0x1282B, size: 0x8, addend: 0x0, symName: __ZTv0_n24_NSt3__114basic_ifstreamIcNS_11char_traitsIcEEED1Ev, symObjAddr: 0x4F64, symBinAddr: 0x100006E7C, symSize: 0x28 }
  - { offsetInCU: 0x12842, offset: 0x12842, size: 0x8, addend: 0x0, symName: __ZN4GameD2Ev, symObjAddr: 0x4F8C, symBinAddr: 0x100006EA4, symSize: 0x1B0 }
  - { offsetInCU: 0x1288D, offset: 0x1288D, size: 0x8, addend: 0x0, symName: __ZNKSt3__113basic_ostreamIcNS_11char_traitsIcEEE6sentrycvbB7v160006Ev, symObjAddr: 0x5330, symBinAddr: 0x100007248, symSize: 0x1C }
  - { offsetInCU: 0x128B3, offset: 0x128B3, size: 0x8, addend: 0x0, symName: __ZNSt3__119ostreambuf_iteratorIcNS_11char_traitsIcEEEC1B7v160006ERNS_13basic_ostreamIcS2_EE, symObjAddr: 0x5594, symBinAddr: 0x1000074AC, symSize: 0x34 }
  - { offsetInCU: 0x128EB, offset: 0x128EB, size: 0x8, addend: 0x0, symName: __ZNKSt3__18ios_base5flagsB7v160006Ev, symObjAddr: 0x55C8, symBinAddr: 0x1000074E0, symSize: 0x18 }
  - { offsetInCU: 0x12913, offset: 0x12913, size: 0x8, addend: 0x0, symName: __ZNKSt3__19basic_iosIcNS_11char_traitsIcEEE4fillB7v160006Ev, symObjAddr: 0x55E0, symBinAddr: 0x1000074F8, symSize: 0x64 }
  - { offsetInCU: 0x1293B, offset: 0x1293B, size: 0x8, addend: 0x0, symName: __ZNKSt3__119ostreambuf_iteratorIcNS_11char_traitsIcEEE6failedB7v160006Ev, symObjAddr: 0x5644, symBinAddr: 0x10000755C, symSize: 0x24 }
  - { offsetInCU: 0x12961, offset: 0x12961, size: 0x8, addend: 0x0, symName: __ZNSt3__19basic_iosIcNS_11char_traitsIcEEE8setstateB7v160006Ej, symObjAddr: 0x5668, symBinAddr: 0x100007580, symSize: 0x2C }
  - { offsetInCU: 0x12996, offset: 0x12996, size: 0x8, addend: 0x0, symName: __ZNKSt3__18ios_base5widthB7v160006Ev, symObjAddr: 0x5694, symBinAddr: 0x1000075AC, symSize: 0x18 }
  - { offsetInCU: 0x129BE, offset: 0x129BE, size: 0x8, addend: 0x0, symName: __ZNSt3__115basic_streambufIcNS_11char_traitsIcEEE5sputnB7v160006EPKcl, symObjAddr: 0x56AC, symBinAddr: 0x1000075C4, symSize: 0x3C }
  - { offsetInCU: 0x12A00, offset: 0x12A00, size: 0x8, addend: 0x0, symName: __ZNSt3__112basic_stringIcNS_11char_traitsIcEENS_9allocatorIcEEEC1B7v160006Emc, symObjAddr: 0x56E8, symBinAddr: 0x100007600, symSize: 0x3C }
  - { offsetInCU: 0x12A48, offset: 0x12A48, size: 0x8, addend: 0x0, symName: __ZNKSt3__112basic_stringIcNS_11char_traitsIcEENS_9allocatorIcEEE4dataB7v160006Ev, symObjAddr: 0x5724, symBinAddr: 0x10000763C, symSize: 0x28 }
  - { offsetInCU: 0x12A6E, offset: 0x12A6E, size: 0x8, addend: 0x0, symName: __ZNSt3__18ios_base5widthB7v160006El, symObjAddr: 0x574C, symBinAddr: 0x100007664, symSize: 0x2C }
  - { offsetInCU: 0x12AB4, offset: 0x12AB4, size: 0x8, addend: 0x0, symName: __ZNSt3__112basic_stringIcNS_11char_traitsIcEENS_9allocatorIcEEEC2B7v160006Emc, symObjAddr: 0x5778, symBinAddr: 0x100007690, symSize: 0x54 }
  - { offsetInCU: 0x12B02, offset: 0x12B02, size: 0x8, addend: 0x0, symName: __ZNSt3__117__compressed_pairINS_12basic_stringIcNS_11char_traitsIcEENS_9allocatorIcEEE5__repES5_EC1B7v160006INS_18__default_init_tagESA_EEOT_OT0_, symObjAddr: 0x57CC, symBinAddr: 0x1000076E4, symSize: 0x3C }
  - { offsetInCU: 0x12B5A, offset: 0x12B5A, size: 0x8, addend: 0x0, symName: __ZNSt3__117__compressed_pairINS_12basic_stringIcNS_11char_traitsIcEENS_9allocatorIcEEE5__repES5_EC2B7v160006INS_18__default_init_tagESA_EEOT_OT0_, symObjAddr: 0x5818, symBinAddr: 0x100007730, symSize: 0x3C }
  - { offsetInCU: 0x12BB2, offset: 0x12BB2, size: 0x8, addend: 0x0, symName: __ZNSt3__122__compressed_pair_elemINS_12basic_stringIcNS_11char_traitsIcEENS_9allocatorIcEEE5__repELi0ELb0EEC2B7v160006ENS_18__default_init_tagE, symObjAddr: 0x5854, symBinAddr: 0x10000776C, symSize: 0x14 }
  - { offsetInCU: 0x12BE7, offset: 0x12BE7, size: 0x8, addend: 0x0, symName: __ZNSt3__122__compressed_pair_elemINS_9allocatorIcEELi1ELb1EEC2B7v160006ENS_18__default_init_tagE, symObjAddr: 0x5868, symBinAddr: 0x100007780, symSize: 0x2C }
  - { offsetInCU: 0x12C1C, offset: 0x12C1C, size: 0x8, addend: 0x0, symName: __ZNSt3__19allocatorIcEC2B7v160006Ev, symObjAddr: 0x5894, symBinAddr: 0x1000077AC, symSize: 0x2C }
  - { offsetInCU: 0x12C46, offset: 0x12C46, size: 0x8, addend: 0x0, symName: __ZNSt3__116__non_trivial_ifILb1ENS_9allocatorIcEEEC2B7v160006Ev, symObjAddr: 0x58C0, symBinAddr: 0x1000077D8, symSize: 0x14 }
  - { offsetInCU: 0x12C70, offset: 0x12C70, size: 0x8, addend: 0x0, symName: __ZNKSt3__112basic_stringIcNS_11char_traitsIcEENS_9allocatorIcEEE13__get_pointerB7v160006Ev, symObjAddr: 0x58E8, symBinAddr: 0x100007800, symSize: 0x54 }
  - { offsetInCU: 0x12C96, offset: 0x12C96, size: 0x8, addend: 0x0, symName: __ZNKSt3__112basic_stringIcNS_11char_traitsIcEENS_9allocatorIcEEE18__get_long_pointerB7v160006Ev, symObjAddr: 0x593C, symBinAddr: 0x100007854, symSize: 0x28 }
  - { offsetInCU: 0x12CBC, offset: 0x12CBC, size: 0x8, addend: 0x0, symName: __ZNKSt3__112basic_stringIcNS_11char_traitsIcEENS_9allocatorIcEEE19__get_short_pointerB7v160006Ev, symObjAddr: 0x5964, symBinAddr: 0x10000787C, symSize: 0x28 }
  - { offsetInCU: 0x12CE2, offset: 0x12CE2, size: 0x8, addend: 0x0, symName: __ZNSt3__114pointer_traitsIPKcE10pointer_toB7v160006ERS1_, symObjAddr: 0x598C, symBinAddr: 0x1000078A4, symSize: 0x14 }
  - { offsetInCU: 0x12D05, offset: 0x12D05, size: 0x8, addend: 0x0, symName: __ZNSt3__119ostreambuf_iteratorIcNS_11char_traitsIcEEEC2B7v160006ERNS_13basic_ostreamIcS2_EE, symObjAddr: 0x59A0, symBinAddr: 0x1000078B8, symSize: 0x68 }
  - { offsetInCU: 0x12D3D, offset: 0x12D3D, size: 0x8, addend: 0x0, symName: __ZNKSt3__19basic_iosIcNS_11char_traitsIcEEE5rdbufB7v160006Ev, symObjAddr: 0x5A08, symBinAddr: 0x100007920, symSize: 0x24 }
  - { offsetInCU: 0x12D65, offset: 0x12D65, size: 0x8, addend: 0x0, symName: __ZNKSt3__18ios_base5rdbufB7v160006Ev, symObjAddr: 0x5A2C, symBinAddr: 0x100007944, symSize: 0x18 }
  - { offsetInCU: 0x12D8B, offset: 0x12D8B, size: 0x8, addend: 0x0, symName: __ZNSt3__111char_traitsIcE11eq_int_typeEii, symObjAddr: 0x5A44, symBinAddr: 0x10000795C, symSize: 0x28 }
  - { offsetInCU: 0x12DBC, offset: 0x12DBC, size: 0x8, addend: 0x0, symName: __ZNSt3__111char_traitsIcE3eofEv, symObjAddr: 0x5A6C, symBinAddr: 0x100007984, symSize: 0x8 }
  - { offsetInCU: 0x12DD0, offset: 0x12DD0, size: 0x8, addend: 0x0, symName: __ZNKSt3__19basic_iosIcNS_11char_traitsIcEEE5widenB7v160006Ec, symObjAddr: 0x5A74, symBinAddr: 0x10000798C, symSize: 0x8C }
  - { offsetInCU: 0x12E34, offset: 0x12E34, size: 0x8, addend: 0x0, symName: __ZNKSt3__15ctypeIcE5widenB7v160006Ec, symObjAddr: 0x5B2C, symBinAddr: 0x100007A44, symSize: 0x38 }
  - { offsetInCU: 0x12E69, offset: 0x12E69, size: 0x8, addend: 0x0, symName: __ZNSt3__18ios_base8setstateB7v160006Ej, symObjAddr: 0x5B64, symBinAddr: 0x100007A7C, symSize: 0x34 }
  - { offsetInCU: 0x12EA0, offset: 0x12EA0, size: 0x8, addend: 0x0, symName: __ZNSt3__112basic_stringIcNS_11char_traitsIcEENS_9allocatorIcEEEC2B7v160006Ev, symObjAddr: 0x5B98, symBinAddr: 0x100007AB0, symSize: 0x44 }
  - { offsetInCU: 0x12ECA, offset: 0x12ECA, size: 0x8, addend: 0x0, symName: __ZNSt3__112basic_stringIcNS_11char_traitsIcEENS_9allocatorIcEEE14__default_initB7v160006Ev, symObjAddr: 0x5BDC, symBinAddr: 0x100007AF4, symSize: 0xB0 }
  - { offsetInCU: 0x12F1D, offset: 0x12F1D, size: 0x8, addend: 0x0, symName: __ZNSt3__117__compressed_pairINS_12basic_stringIcNS_11char_traitsIcEENS_9allocatorIcEEE5__repES5_E5firstB7v160006Ev, symObjAddr: 0x5C8C, symBinAddr: 0x100007BA4, symSize: 0x24 }
  - { offsetInCU: 0x12F43, offset: 0x12F43, size: 0x8, addend: 0x0, symName: __ZNSt3__112basic_stringIcNS_11char_traitsIcEENS_9allocatorIcEEE11__recommendB7v160006Em, symObjAddr: 0x5CB0, symBinAddr: 0x100007BC8, symSize: 0x9C }
  - { offsetInCU: 0x12F76, offset: 0x12F76, size: 0x8, addend: 0x0, symName: __ZNSt3__116allocator_traitsINS_9allocatorIcEEE8allocateB7v160006ERS2_m, symObjAddr: 0x5D4C, symBinAddr: 0x100007C64, symSize: 0x2C }
  - { offsetInCU: 0x12FA9, offset: 0x12FA9, size: 0x8, addend: 0x0, symName: __ZNSt3__112basic_stringIcNS_11char_traitsIcEENS_9allocatorIcEEE7__allocB7v160006Ev, symObjAddr: 0x5D78, symBinAddr: 0x100007C90, symSize: 0x24 }
  - { offsetInCU: 0x12FCF, offset: 0x12FCF, size: 0x8, addend: 0x0, symName: __ZNSt3__112basic_stringIcNS_11char_traitsIcEENS_9allocatorIcEEE16__begin_lifetimeB7v160006EPcm, symObjAddr: 0x5D9C, symBinAddr: 0x100007CB4, symSize: 0x14 }
  - { offsetInCU: 0x13002, offset: 0x13002, size: 0x8, addend: 0x0, symName: __ZNSt3__112basic_stringIcNS_11char_traitsIcEENS_9allocatorIcEEE18__set_long_pointerB7v160006EPc, symObjAddr: 0x5DB0, symBinAddr: 0x100007CC8, symSize: 0x38 }
  - { offsetInCU: 0x13037, offset: 0x13037, size: 0x8, addend: 0x0, symName: __ZNSt3__112basic_stringIcNS_11char_traitsIcEENS_9allocatorIcEEE14__set_long_capB7v160006Em, symObjAddr: 0x5DE8, symBinAddr: 0x100007D00, symSize: 0x70 }
  - { offsetInCU: 0x1306C, offset: 0x1306C, size: 0x8, addend: 0x0, symName: __ZNSt3__112basic_stringIcNS_11char_traitsIcEENS_9allocatorIcEEE15__set_long_sizeB7v160006Em, symObjAddr: 0x5E58, symBinAddr: 0x100007D70, symSize: 0x38 }
  - { offsetInCU: 0x130A1, offset: 0x130A1, size: 0x8, addend: 0x0, symName: __ZNSt3__122__compressed_pair_elemINS_12basic_stringIcNS_11char_traitsIcEENS_9allocatorIcEEE5__repELi0ELb0EE5__getB7v160006Ev, symObjAddr: 0x5E90, symBinAddr: 0x100007DA8, symSize: 0x14 }
  - { offsetInCU: 0x130C7, offset: 0x130C7, size: 0x8, addend: 0x0, symName: __ZNSt3__112basic_stringIcNS_11char_traitsIcEENS_9allocatorIcEEE10__align_itB7v160006ILm16EEEmm, symObjAddr: 0x5EA4, symBinAddr: 0x100007DBC, symSize: 0x1C }
  - { offsetInCU: 0x130F5, offset: 0x130F5, size: 0x8, addend: 0x0, symName: __ZNSt3__19allocatorIcE8allocateB7v160006Em, symObjAddr: 0x5EC0, symBinAddr: 0x100007DD8, symSize: 0x84 }
  - { offsetInCU: 0x13133, offset: 0x13133, size: 0x8, addend: 0x0, symName: __ZNSt3__116allocator_traitsINS_9allocatorIcEEE8max_sizeB7v160006IS2_vEEmRKS2_, symObjAddr: 0x5F44, symBinAddr: 0x100007E5C, symSize: 0x24 }
  - { offsetInCU: 0x13161, offset: 0x13161, size: 0x8, addend: 0x0, symName: __ZNKSt3__19allocatorIcE8max_sizeB7v160006Ev, symObjAddr: 0x5FC4, symBinAddr: 0x100007EDC, symSize: 0x14 }
  - { offsetInCU: 0x13187, offset: 0x13187, size: 0x8, addend: 0x0, symName: __ZNSt3__117__compressed_pairINS_12basic_stringIcNS_11char_traitsIcEENS_9allocatorIcEEE5__repES5_E6secondB7v160006Ev, symObjAddr: 0x5FFC, symBinAddr: 0x100007F14, symSize: 0x24 }
  - { offsetInCU: 0x131AD, offset: 0x131AD, size: 0x8, addend: 0x0, symName: __ZNSt3__122__compressed_pair_elemINS_9allocatorIcEELi1ELb1EE5__getB7v160006Ev, symObjAddr: 0x6020, symBinAddr: 0x100007F38, symSize: 0x14 }
  - { offsetInCU: 0x131F1, offset: 0x131F1, size: 0x8, addend: 0x0, symName: __ZNKSt3__113basic_istreamIcNS_11char_traitsIcEEE6sentrycvbB7v160006Ev, symObjAddr: 0x6034, symBinAddr: 0x100007F4C, symSize: 0x1C }
  - { offsetInCU: 0x13217, offset: 0x13217, size: 0x8, addend: 0x0, symName: __ZNSt3__112basic_stringIcNS_11char_traitsIcEENS_9allocatorIcEEE5clearB7v160006Ev, symObjAddr: 0x6050, symBinAddr: 0x100007F68, symSize: 0x9C }
  - { offsetInCU: 0x1323F, offset: 0x1323F, size: 0x8, addend: 0x0, symName: __ZNKSt3__112basic_stringIcNS_11char_traitsIcEENS_9allocatorIcEEE8max_sizeB7v160006Ev, symObjAddr: 0x60EC, symBinAddr: 0x100008004, symSize: 0xAC }
  - { offsetInCU: 0x13292, offset: 0x13292, size: 0x8, addend: 0x0, symName: __ZNSt3__114numeric_limitsIlE3maxB7v160006Ev, symObjAddr: 0x6198, symBinAddr: 0x1000080B0, symSize: 0x14 }
  - { offsetInCU: 0x132A6, offset: 0x132A6, size: 0x8, addend: 0x0, symName: __ZNSt3__115basic_streambufIcNS_11char_traitsIcEEE5sgetcB7v160006Ev, symObjAddr: 0x61AC, symBinAddr: 0x1000080C4, symSize: 0x70 }
  - { offsetInCU: 0x132CC, offset: 0x132CC, size: 0x8, addend: 0x0, symName: __ZNSt3__111char_traitsIcE12to_char_typeEi, symObjAddr: 0x621C, symBinAddr: 0x100008134, symSize: 0x18 }
  - { offsetInCU: 0x132EF, offset: 0x132EF, size: 0x8, addend: 0x0, symName: __ZNKSt3__15ctypeIcE2isB7v160006Ejc, symObjAddr: 0x6234, symBinAddr: 0x10000814C, symSize: 0x7C }
  - { offsetInCU: 0x13333, offset: 0x13333, size: 0x8, addend: 0x0, symName: __ZNSt3__115basic_streambufIcNS_11char_traitsIcEEE6sbumpcB7v160006Ev, symObjAddr: 0x62B0, symBinAddr: 0x1000081C8, symSize: 0x78 }
  - { offsetInCU: 0x13359, offset: 0x13359, size: 0x8, addend: 0x0, symName: __ZNSt3__18ios_base18__setstate_nothrowB7v160006Ej, symObjAddr: 0x6328, symBinAddr: 0x100008240, symSize: 0x64 }
  - { offsetInCU: 0x1338E, offset: 0x1338E, size: 0x8, addend: 0x0, symName: __ZNKSt3__19basic_iosIcNS_11char_traitsIcEEE10exceptionsB7v160006Ev, symObjAddr: 0x638C, symBinAddr: 0x1000082A4, symSize: 0x24 }
  - { offsetInCU: 0x133B4, offset: 0x133B4, size: 0x8, addend: 0x0, symName: __ZNSt3__111char_traitsIcE6assignERcRKc, symObjAddr: 0x63C0, symBinAddr: 0x1000082D8, symSize: 0x24 }
  - { offsetInCU: 0x133E5, offset: 0x133E5, size: 0x8, addend: 0x0, symName: __ZNSt3__112basic_stringIcNS_11char_traitsIcEENS_9allocatorIcEEE18__get_long_pointerB7v160006Ev, symObjAddr: 0x63E4, symBinAddr: 0x1000082FC, symSize: 0x28 }
  - { offsetInCU: 0x1340B, offset: 0x1340B, size: 0x8, addend: 0x0, symName: __ZNSt3__112basic_stringIcNS_11char_traitsIcEENS_9allocatorIcEEE19__get_short_pointerB7v160006Ev, symObjAddr: 0x640C, symBinAddr: 0x100008324, symSize: 0x28 }
  - { offsetInCU: 0x13431, offset: 0x13431, size: 0x8, addend: 0x0, symName: __ZNSt3__112basic_stringIcNS_11char_traitsIcEENS_9allocatorIcEEE16__set_short_sizeB7v160006Em, symObjAddr: 0x6434, symBinAddr: 0x10000834C, symSize: 0x78 }
  - { offsetInCU: 0x13466, offset: 0x13466, size: 0x8, addend: 0x0, symName: __ZNSt3__114pointer_traitsIPcE10pointer_toB7v160006ERc, symObjAddr: 0x64AC, symBinAddr: 0x1000083C4, symSize: 0x14 }
  - { offsetInCU: 0x13489, offset: 0x13489, size: 0x8, addend: 0x0, symName: __ZNKSt3__112basic_stringIcNS_11char_traitsIcEENS_9allocatorIcEEE7__allocB7v160006Ev, symObjAddr: 0x64C0, symBinAddr: 0x1000083D8, symSize: 0x24 }
  - { offsetInCU: 0x134AF, offset: 0x134AF, size: 0x8, addend: 0x0, symName: __ZNSt3__114numeric_limitsImE3maxB7v160006Ev, symObjAddr: 0x64E4, symBinAddr: 0x1000083FC, symSize: 0x14 }
  - { offsetInCU: 0x134C3, offset: 0x134C3, size: 0x8, addend: 0x0, symName: __ZNKSt3__117__compressed_pairINS_12basic_stringIcNS_11char_traitsIcEENS_9allocatorIcEEE5__repES5_E6secondB7v160006Ev, symObjAddr: 0x64F8, symBinAddr: 0x100008410, symSize: 0x24 }
  - { offsetInCU: 0x134E9, offset: 0x134E9, size: 0x8, addend: 0x0, symName: __ZNKSt3__122__compressed_pair_elemINS_9allocatorIcEELi1ELb1EE5__getB7v160006Ev, symObjAddr: 0x651C, symBinAddr: 0x100008434, symSize: 0x14 }
  - { offsetInCU: 0x1350F, offset: 0x1350F, size: 0x8, addend: 0x0, symName: __ZNSt3__123__libcpp_numeric_limitsImLb1EE3maxB7v160006Ev, symObjAddr: 0x6530, symBinAddr: 0x100008448, symSize: 0x8 }
  - { offsetInCU: 0x13523, offset: 0x13523, size: 0x8, addend: 0x0, symName: __ZNSt3__123__libcpp_numeric_limitsIlLb1EE3maxB7v160006Ev, symObjAddr: 0x6538, symBinAddr: 0x100008450, symSize: 0x8 }
  - { offsetInCU: 0x13537, offset: 0x13537, size: 0x8, addend: 0x0, symName: __ZNSt3__111char_traitsIcE11to_int_typeEc, symObjAddr: 0x6540, symBinAddr: 0x100008458, symSize: 0x14 }
  - { offsetInCU: 0x13559, offset: 0x13559, size: 0x8, addend: 0x0, symName: __Z7isasciii, symObjAddr: 0x6554, symBinAddr: 0x10000846C, symSize: 0x24 }
  - { offsetInCU: 0x13586, offset: 0x13586, size: 0x8, addend: 0x0, symName: __ZNKSt3__18ios_base10exceptionsB7v160006Ev, symObjAddr: 0x6578, symBinAddr: 0x100008490, symSize: 0x18 }
  - { offsetInCU: 0x135AE, offset: 0x135AE, size: 0x8, addend: 0x0, symName: __ZNSt3__16vectorIP6CourseNS_9allocatorIS2_EEEC2B7v160006Ev, symObjAddr: 0x6590, symBinAddr: 0x1000084A8, symSize: 0x4C }
  - { offsetInCU: 0x135DE, offset: 0x135DE, size: 0x8, addend: 0x0, symName: __ZNSt3__117__compressed_pairIPP6CourseNS_9allocatorIS2_EEEC1B7v160006IDnNS_18__default_init_tagEEEOT_OT0_, symObjAddr: 0x65DC, symBinAddr: 0x1000084F4, symSize: 0x3C }
  - { offsetInCU: 0x13636, offset: 0x13636, size: 0x8, addend: 0x0, symName: __ZNSt3__117__compressed_pairIPP6CourseNS_9allocatorIS2_EEEC2B7v160006IDnNS_18__default_init_tagEEEOT_OT0_, symObjAddr: 0x6628, symBinAddr: 0x100008540, symSize: 0x40 }
  - { offsetInCU: 0x1368E, offset: 0x1368E, size: 0x8, addend: 0x0, symName: __ZNSt3__122__compressed_pair_elemIPP6CourseLi0ELb0EEC2B7v160006IDnvEEOT_, symObjAddr: 0x6668, symBinAddr: 0x100008580, symSize: 0x1C }
  - { offsetInCU: 0x136D0, offset: 0x136D0, size: 0x8, addend: 0x0, symName: __ZNSt3__122__compressed_pair_elemINS_9allocatorIP6CourseEELi1ELb1EEC2B7v160006ENS_18__default_init_tagE, symObjAddr: 0x6684, symBinAddr: 0x10000859C, symSize: 0x2C }
  - { offsetInCU: 0x13705, offset: 0x13705, size: 0x8, addend: 0x0, symName: __ZNSt3__19allocatorIP6CourseEC2B7v160006Ev, symObjAddr: 0x66B0, symBinAddr: 0x1000085C8, symSize: 0x2C }
  - { offsetInCU: 0x1372F, offset: 0x1372F, size: 0x8, addend: 0x0, symName: __ZNSt3__116__non_trivial_ifILb1ENS_9allocatorIP6CourseEEEC2B7v160006Ev, symObjAddr: 0x66DC, symBinAddr: 0x1000085F4, symSize: 0x14 }
  - { offsetInCU: 0x13759, offset: 0x13759, size: 0x8, addend: 0x0, symName: __ZNSt3__16vectorIP6CourseNS_9allocatorIS2_EEED2B7v160006Ev, symObjAddr: 0x66F0, symBinAddr: 0x100008608, symSize: 0x3C }
  - { offsetInCU: 0x13783, offset: 0x13783, size: 0x8, addend: 0x0, symName: __ZNSt3__16vectorIP6CourseNS_9allocatorIS2_EEE16__destroy_vectorC1ERS5_, symObjAddr: 0x672C, symBinAddr: 0x100008644, symSize: 0x34 }
  - { offsetInCU: 0x137BC, offset: 0x137BC, size: 0x8, addend: 0x0, symName: __ZNSt3__16vectorIP6CourseNS_9allocatorIS2_EEE16__destroy_vectorclB7v160006Ev, symObjAddr: 0x6760, symBinAddr: 0x100008678, symSize: 0x9C }
  - { offsetInCU: 0x137E2, offset: 0x137E2, size: 0x8, addend: 0x0, symName: __ZNSt3__16vectorIP6CourseNS_9allocatorIS2_EEE16__destroy_vectorC2ERS5_, symObjAddr: 0x67FC, symBinAddr: 0x100008714, symSize: 0x20 }
  - { offsetInCU: 0x1381B, offset: 0x1381B, size: 0x8, addend: 0x0, symName: __ZNKSt3__16vectorIP6CourseNS_9allocatorIS2_EEE17__annotate_deleteB7v160006Ev, symObjAddr: 0x681C, symBinAddr: 0x100008734, symSize: 0xB8 }
  - { offsetInCU: 0x13841, offset: 0x13841, size: 0x8, addend: 0x0, symName: __ZNSt3__16vectorIP6CourseNS_9allocatorIS2_EEE7__clearB7v160006Ev, symObjAddr: 0x68E4, symBinAddr: 0x1000087FC, symSize: 0x28 }
  - { offsetInCU: 0x13867, offset: 0x13867, size: 0x8, addend: 0x0, symName: __ZNSt3__116allocator_traitsINS_9allocatorIP6CourseEEE10deallocateB7v160006ERS4_PS3_m, symObjAddr: 0x690C, symBinAddr: 0x100008824, symSize: 0x34 }
  - { offsetInCU: 0x138A9, offset: 0x138A9, size: 0x8, addend: 0x0, symName: __ZNSt3__16vectorIP6CourseNS_9allocatorIS2_EEE7__allocB7v160006Ev, symObjAddr: 0x6940, symBinAddr: 0x100008858, symSize: 0x28 }
  - { offsetInCU: 0x138CF, offset: 0x138CF, size: 0x8, addend: 0x0, symName: __ZNKSt3__16vectorIP6CourseNS_9allocatorIS2_EEE8capacityB7v160006Ev, symObjAddr: 0x6968, symBinAddr: 0x100008880, symSize: 0x40 }
  - { offsetInCU: 0x138F5, offset: 0x138F5, size: 0x8, addend: 0x0, symName: __ZNKSt3__16vectorIP6CourseNS_9allocatorIS2_EEE31__annotate_contiguous_containerB7v160006EPKvS7_S7_S7_, symObjAddr: 0x69A8, symBinAddr: 0x1000088C0, symSize: 0x20 }
  - { offsetInCU: 0x13947, offset: 0x13947, size: 0x8, addend: 0x0, symName: __ZNKSt3__16vectorIP6CourseNS_9allocatorIS2_EEE4dataB7v160006Ev, symObjAddr: 0x69C8, symBinAddr: 0x1000088E0, symSize: 0x28 }
  - { offsetInCU: 0x1396D, offset: 0x1396D, size: 0x8, addend: 0x0, symName: __ZNSt3__16vectorIP6CourseNS_9allocatorIS2_EEE22__base_destruct_at_endB7v160006EPS2_, symObjAddr: 0x6A04, symBinAddr: 0x10000891C, symSize: 0xA0 }
  - { offsetInCU: 0x139B1, offset: 0x139B1, size: 0x8, addend: 0x0, symName: __ZNSt3__116allocator_traitsINS_9allocatorIP6CourseEEE7destroyB7v160006IS3_vEEvRS4_PT_, symObjAddr: 0x6AA4, symBinAddr: 0x1000089BC, symSize: 0x2C }
  - { offsetInCU: 0x139EE, offset: 0x139EE, size: 0x8, addend: 0x0, symName: __ZNSt3__19allocatorIP6CourseE7destroyB7v160006EPS2_, symObjAddr: 0x6AD0, symBinAddr: 0x1000089E8, symSize: 0x14 }
  - { offsetInCU: 0x13A22, offset: 0x13A22, size: 0x8, addend: 0x0, symName: __ZNSt3__19allocatorIP6CourseE10deallocateB7v160006EPS2_m, symObjAddr: 0x6AE4, symBinAddr: 0x1000089FC, symSize: 0x70 }
  - { offsetInCU: 0x13A64, offset: 0x13A64, size: 0x8, addend: 0x0, symName: __ZNSt3__117__compressed_pairIPP6CourseNS_9allocatorIS2_EEE6secondB7v160006Ev, symObjAddr: 0x6BD0, symBinAddr: 0x100008AE8, symSize: 0x24 }
  - { offsetInCU: 0x13A8A, offset: 0x13A8A, size: 0x8, addend: 0x0, symName: __ZNSt3__122__compressed_pair_elemINS_9allocatorIP6CourseEELi1ELb1EE5__getB7v160006Ev, symObjAddr: 0x6BF4, symBinAddr: 0x100008B0C, symSize: 0x14 }
  - { offsetInCU: 0x13AB0, offset: 0x13AB0, size: 0x8, addend: 0x0, symName: __ZNKSt3__16vectorIP6CourseNS_9allocatorIS2_EEE9__end_capB7v160006Ev, symObjAddr: 0x6C08, symBinAddr: 0x100008B20, symSize: 0x28 }
  - { offsetInCU: 0x13AD6, offset: 0x13AD6, size: 0x8, addend: 0x0, symName: __ZNKSt3__117__compressed_pairIPP6CourseNS_9allocatorIS2_EEE5firstB7v160006Ev, symObjAddr: 0x6C30, symBinAddr: 0x100008B48, symSize: 0x24 }
  - { offsetInCU: 0x13AFC, offset: 0x13AFC, size: 0x8, addend: 0x0, symName: __ZNKSt3__122__compressed_pair_elemIPP6CourseLi0ELb0EE5__getB7v160006Ev, symObjAddr: 0x6C54, symBinAddr: 0x100008B6C, symSize: 0x14 }
  - { offsetInCU: 0x13B22, offset: 0x13B22, size: 0x8, addend: 0x0, symName: __ZNSt3__16vectorIP6CourseNS_9allocatorIS2_EEE9__end_capB7v160006Ev, symObjAddr: 0x6C68, symBinAddr: 0x100008B80, symSize: 0x28 }
  - { offsetInCU: 0x13B48, offset: 0x13B48, size: 0x8, addend: 0x0, symName: __ZNSt3__16vectorIP6CourseNS_9allocatorIS2_EEE22__construct_one_at_endB7v160006IJRKS2_EEEvDpOT_, symObjAddr: 0x6C90, symBinAddr: 0x100008BA8, symSize: 0x98 }
  - { offsetInCU: 0x13B97, offset: 0x13B97, size: 0x8, addend: 0x0, symName: __ZNSt3__16vectorIP6CourseNS_9allocatorIS2_EEE21__push_back_slow_pathIRKS2_EEvOT_, symObjAddr: 0x6D28, symBinAddr: 0x100008C40, symSize: 0xE0 }
  - { offsetInCU: 0x13BF5, offset: 0x13BF5, size: 0x8, addend: 0x0, symName: __ZNSt3__117__compressed_pairIPP6CourseNS_9allocatorIS2_EEE5firstB7v160006Ev, symObjAddr: 0x6E08, symBinAddr: 0x100008D20, symSize: 0x24 }
  - { offsetInCU: 0x13C1B, offset: 0x13C1B, size: 0x8, addend: 0x0, symName: __ZNSt3__122__compressed_pair_elemIPP6CourseLi0ELb0EE5__getB7v160006Ev, symObjAddr: 0x6E2C, symBinAddr: 0x100008D44, symSize: 0x14 }
  - { offsetInCU: 0x13C5A, offset: 0x13C5A, size: 0x8, addend: 0x0, symName: __ZNSt3__16vectorIP6CourseNS_9allocatorIS2_EEE21_ConstructTransactionC1B7v160006ERS5_m, symObjAddr: 0x6E40, symBinAddr: 0x100008D58, symSize: 0x3C }
  - { offsetInCU: 0x13CA2, offset: 0x13CA2, size: 0x8, addend: 0x0, symName: __ZNSt3__116allocator_traitsINS_9allocatorIP6CourseEEE9constructB7v160006IS3_JRKS3_EvEEvRS4_PT_DpOT0_, symObjAddr: 0x6E7C, symBinAddr: 0x100008D94, symSize: 0x34 }
  - { offsetInCU: 0x13CF9, offset: 0x13CF9, size: 0x8, addend: 0x0, symName: __ZNSt3__16vectorIP6CourseNS_9allocatorIS2_EEE21_ConstructTransactionD1B7v160006Ev, symObjAddr: 0x6EB0, symBinAddr: 0x100008DC8, symSize: 0x2C }
  - { offsetInCU: 0x13D23, offset: 0x13D23, size: 0x8, addend: 0x0, symName: __ZNSt3__16vectorIP6CourseNS_9allocatorIS2_EEE21_ConstructTransactionC2B7v160006ERS5_m, symObjAddr: 0x6EDC, symBinAddr: 0x100008DF4, symSize: 0x44 }
  - { offsetInCU: 0x13D6B, offset: 0x13D6B, size: 0x8, addend: 0x0, symName: __ZNSt3__19allocatorIP6CourseE9constructB7v160006IS2_JRKS2_EEEvPT_DpOT0_, symObjAddr: 0x6F20, symBinAddr: 0x100008E38, symSize: 0x28 }
  - { offsetInCU: 0x13DC1, offset: 0x13DC1, size: 0x8, addend: 0x0, symName: __ZNSt3__16vectorIP6CourseNS_9allocatorIS2_EEE21_ConstructTransactionD2B7v160006Ev, symObjAddr: 0x6F48, symBinAddr: 0x100008E60, symSize: 0x20 }
  - { offsetInCU: 0x13DEB, offset: 0x13DEB, size: 0x8, addend: 0x0, symName: __ZNKSt3__16vectorIP6CourseNS_9allocatorIS2_EEE11__recommendB7v160006Em, symObjAddr: 0x6F68, symBinAddr: 0x100008E80, symSize: 0xB4 }
  - { offsetInCU: 0x13E40, offset: 0x13E40, size: 0x8, addend: 0x0, symName: __ZNSt3__114__split_bufferIP6CourseRNS_9allocatorIS2_EEEC1EmmS5_, symObjAddr: 0x701C, symBinAddr: 0x100008F34, symSize: 0x44 }
  - { offsetInCU: 0x13E96, offset: 0x13E96, size: 0x8, addend: 0x0, symName: __ZNSt3__114__split_bufferIP6CourseRNS_9allocatorIS2_EEED1Ev, symObjAddr: 0x7178, symBinAddr: 0x100009090, symSize: 0x2C }
  - { offsetInCU: 0x13EC2, offset: 0x13EC2, size: 0x8, addend: 0x0, symName: __ZNKSt3__16vectorIP6CourseNS_9allocatorIS2_EEE8max_sizeEv, symObjAddr: 0x71A4, symBinAddr: 0x1000090BC, symSize: 0x74 }
  - { offsetInCU: 0x13EEA, offset: 0x13EEA, size: 0x8, addend: 0x0, symName: __ZNKSt3__16vectorIP6CourseNS_9allocatorIS2_EEE20__throw_length_errorB7v160006Ev, symObjAddr: 0x7218, symBinAddr: 0x100009130, symSize: 0x1C }
  - { offsetInCU: 0x13F1A, offset: 0x13F1A, size: 0x8, addend: 0x0, symName: __ZNSt3__116allocator_traitsINS_9allocatorIP6CourseEEE8max_sizeB7v160006IS4_vEEmRKS4_, symObjAddr: 0x728C, symBinAddr: 0x1000091A4, symSize: 0x24 }
  - { offsetInCU: 0x13F48, offset: 0x13F48, size: 0x8, addend: 0x0, symName: __ZNKSt3__16vectorIP6CourseNS_9allocatorIS2_EEE7__allocB7v160006Ev, symObjAddr: 0x72B0, symBinAddr: 0x1000091C8, symSize: 0x28 }
  - { offsetInCU: 0x13F82, offset: 0x13F82, size: 0x8, addend: 0x0, symName: __ZNKSt3__16__lessImmEclB7v160006ERKmS3_, symObjAddr: 0x732C, symBinAddr: 0x100009244, symSize: 0x34 }
  - { offsetInCU: 0x13FC4, offset: 0x13FC4, size: 0x8, addend: 0x0, symName: __ZNKSt3__19allocatorIP6CourseE8max_sizeB7v160006Ev, symObjAddr: 0x7360, symBinAddr: 0x100009278, symSize: 0x14 }
  - { offsetInCU: 0x13FEA, offset: 0x13FEA, size: 0x8, addend: 0x0, symName: __ZNKSt3__117__compressed_pairIPP6CourseNS_9allocatorIS2_EEE6secondB7v160006Ev, symObjAddr: 0x7374, symBinAddr: 0x10000928C, symSize: 0x24 }
  - { offsetInCU: 0x14010, offset: 0x14010, size: 0x8, addend: 0x0, symName: __ZNKSt3__122__compressed_pair_elemINS_9allocatorIP6CourseEELi1ELb1EE5__getB7v160006Ev, symObjAddr: 0x7398, symBinAddr: 0x1000092B0, symSize: 0x14 }
  - { offsetInCU: 0x14036, offset: 0x14036, size: 0x8, addend: 0x0, symName: __ZNSt12length_errorC1B7v160006EPKc, symObjAddr: 0x7410, symBinAddr: 0x100009328, symSize: 0x34 }
  - { offsetInCU: 0x1406E, offset: 0x1406E, size: 0x8, addend: 0x0, symName: __ZNSt12length_errorC2B7v160006EPKc, symObjAddr: 0x7444, symBinAddr: 0x10000935C, symSize: 0x4C }
  - { offsetInCU: 0x140A6, offset: 0x140A6, size: 0x8, addend: 0x0, symName: __ZNSt3__114__split_bufferIP6CourseRNS_9allocatorIS2_EEEC2EmmS5_, symObjAddr: 0x74E4, symBinAddr: 0x1000093FC, symSize: 0xD4 }
  - { offsetInCU: 0x1411A, offset: 0x1411A, size: 0x8, addend: 0x0, symName: __ZNSt3__117__compressed_pairIPP6CourseRNS_9allocatorIS2_EEEC1B7v160006IDnS6_EEOT_OT0_, symObjAddr: 0x75B8, symBinAddr: 0x1000094D0, symSize: 0x3C }
  - { offsetInCU: 0x14172, offset: 0x14172, size: 0x8, addend: 0x0, symName: __ZNSt3__114__split_bufferIP6CourseRNS_9allocatorIS2_EEE7__allocB7v160006Ev, symObjAddr: 0x7634, symBinAddr: 0x10000954C, symSize: 0x28 }
  - { offsetInCU: 0x14198, offset: 0x14198, size: 0x8, addend: 0x0, symName: __ZNSt3__114__split_bufferIP6CourseRNS_9allocatorIS2_EEE9__end_capB7v160006Ev, symObjAddr: 0x765C, symBinAddr: 0x100009574, symSize: 0x28 }
  - { offsetInCU: 0x141BE, offset: 0x141BE, size: 0x8, addend: 0x0, symName: __ZNSt3__117__compressed_pairIPP6CourseRNS_9allocatorIS2_EEEC2B7v160006IDnS6_EEOT_OT0_, symObjAddr: 0x7684, symBinAddr: 0x10000959C, symSize: 0x48 }
  - { offsetInCU: 0x14216, offset: 0x14216, size: 0x8, addend: 0x0, symName: __ZNSt3__122__compressed_pair_elemIRNS_9allocatorIP6CourseEELi1ELb0EEC2B7v160006IS5_vEEOT_, symObjAddr: 0x76CC, symBinAddr: 0x1000095E4, symSize: 0x20 }
  - { offsetInCU: 0x14258, offset: 0x14258, size: 0x8, addend: 0x0, symName: __ZNSt3__19allocatorIP6CourseE8allocateB7v160006Em, symObjAddr: 0x76EC, symBinAddr: 0x100009604, symSize: 0x84 }
  - { offsetInCU: 0x1428C, offset: 0x1428C, size: 0x8, addend: 0x0, symName: __ZNSt3__117__compressed_pairIPP6CourseRNS_9allocatorIS2_EEE6secondB7v160006Ev, symObjAddr: 0x7770, symBinAddr: 0x100009688, symSize: 0x28 }
  - { offsetInCU: 0x142B2, offset: 0x142B2, size: 0x8, addend: 0x0, symName: __ZNSt3__122__compressed_pair_elemIRNS_9allocatorIP6CourseEELi1ELb0EE5__getB7v160006Ev, symObjAddr: 0x7798, symBinAddr: 0x1000096B0, symSize: 0x18 }
  - { offsetInCU: 0x142D8, offset: 0x142D8, size: 0x8, addend: 0x0, symName: __ZNSt3__117__compressed_pairIPP6CourseRNS_9allocatorIS2_EEE5firstB7v160006Ev, symObjAddr: 0x77B0, symBinAddr: 0x1000096C8, symSize: 0x24 }
  - { offsetInCU: 0x142FE, offset: 0x142FE, size: 0x8, addend: 0x0, symName: __ZNSt3__116reverse_iteratorIPP6CourseEC1B7v160006ES3_, symObjAddr: 0x78BC, symBinAddr: 0x1000097D4, symSize: 0x34 }
  - { offsetInCU: 0x14336, offset: 0x14336, size: 0x8, addend: 0x0, symName: __ZNKSt3__116reverse_iteratorIPP6CourseE4baseB7v160006Ev, symObjAddr: 0x78F0, symBinAddr: 0x100009808, symSize: 0x18 }
  - { offsetInCU: 0x1435C, offset: 0x1435C, size: 0x8, addend: 0x0, symName: __ZNKSt3__16vectorIP6CourseNS_9allocatorIS2_EEE14__annotate_newB7v160006Em, symObjAddr: 0x7944, symBinAddr: 0x10000985C, symSize: 0xAC }
  - { offsetInCU: 0x14391, offset: 0x14391, size: 0x8, addend: 0x0, symName: __ZNKSt3__116reverse_iteratorIPP6CourseEdeB7v160006Ev, symObjAddr: 0x7A98, symBinAddr: 0x1000099B0, symSize: 0x28 }
  - { offsetInCU: 0x143C5, offset: 0x143C5, size: 0x8, addend: 0x0, symName: __ZNSt3__116reverse_iteratorIPP6CourseEppB7v160006Ev, symObjAddr: 0x7AC0, symBinAddr: 0x1000099D8, symSize: 0x20 }
  - { offsetInCU: 0x143F0, offset: 0x143F0, size: 0x8, addend: 0x0, symName: __ZNSt3__119__to_address_helperINS_16reverse_iteratorIPP6CourseEEvE6__callB7v160006ERKS5_, symObjAddr: 0x7B58, symBinAddr: 0x100009A70, symSize: 0x4C }
  - { offsetInCU: 0x14413, offset: 0x14413, size: 0x8, addend: 0x0, symName: __ZNKSt3__116reverse_iteratorIPP6CourseEptB7v160006Ev, symObjAddr: 0x7BA4, symBinAddr: 0x100009ABC, symSize: 0x24 }
  - { offsetInCU: 0x1445D, offset: 0x1445D, size: 0x8, addend: 0x0, symName: __ZNKSt3__111__move_loopINS_17_ClassicAlgPolicyEEclB7v160006INS_16reverse_iteratorIPP6CourseEES8_S8_EENS_4pairIT_T1_EESA_T0_SB_, symObjAddr: 0x7E58, symBinAddr: 0x100009D70, symSize: 0xA0 }
  - { offsetInCU: 0x144CE, offset: 0x144CE, size: 0x8, addend: 0x0, symName: __ZNSt3__18_IterOpsINS_17_ClassicAlgPolicyEE11__iter_moveB7v160006IRNS_16reverse_iteratorIPP6CourseEEEENS_9enable_ifIXsr12is_referenceIDTdeclsr3stdE7declvalIRT_EEEEE5valueEDTclsr3stdE4movedeclsr3stdE7declvalISC_EEEEE4typeEOSB_, symObjAddr: 0x8058, symBinAddr: 0x100009F70, symSize: 0x28 }
  - { offsetInCU: 0x144FA, offset: 0x144FA, size: 0x8, addend: 0x0, symName: __ZNSt3__18_IterOpsINS_17_ClassicAlgPolicyEE25__validate_iter_referenceB7v160006IRNS_16reverse_iteratorIPP6CourseEEEEvv, symObjAddr: 0x8080, symBinAddr: 0x100009F98, symSize: 0x4 }
  - { offsetInCU: 0x14518, offset: 0x14518, size: 0x8, addend: 0x0, symName: __ZNSt3__118__unwrap_iter_implINS_16reverse_iteratorIPP6CourseEELb0EE8__unwrapB7v160006ES5_, symObjAddr: 0x8084, symBinAddr: 0x100009F9C, symSize: 0x24 }
  - { offsetInCU: 0x1453B, offset: 0x1453B, size: 0x8, addend: 0x0, symName: __ZNSt3__14pairINS_16reverse_iteratorIPP6CourseEES5_EC1B7v160006ERKS5_S8_, symObjAddr: 0x80A8, symBinAddr: 0x100009FC0, symSize: 0x3C }
  - { offsetInCU: 0x14581, offset: 0x14581, size: 0x8, addend: 0x0, symName: __ZNSt3__14pairINS_16reverse_iteratorIPP6CourseEES5_EC2B7v160006ERKS5_S8_, symObjAddr: 0x80E4, symBinAddr: 0x100009FFC, symSize: 0x34 }
  - { offsetInCU: 0x145C7, offset: 0x145C7, size: 0x8, addend: 0x0, symName: __ZNSt3__118__unwrap_iter_implINS_16reverse_iteratorIPP6CourseEELb0EE8__rewrapB7v160006ES5_S5_, symObjAddr: 0x8118, symBinAddr: 0x10000A030, symSize: 0x2C }
  - { offsetInCU: 0x145F5, offset: 0x145F5, size: 0x8, addend: 0x0, symName: __ZNSt3__116reverse_iteratorIPP6CourseEC2B7v160006ES3_, symObjAddr: 0x8144, symBinAddr: 0x10000A05C, symSize: 0x28 }
  - { offsetInCU: 0x1462D, offset: 0x1462D, size: 0x8, addend: 0x0, symName: __ZNSt3__114__split_bufferIP6CourseRNS_9allocatorIS2_EEED2Ev, symObjAddr: 0x816C, symBinAddr: 0x10000A084, symSize: 0x80 }
  - { offsetInCU: 0x14659, offset: 0x14659, size: 0x8, addend: 0x0, symName: __ZNSt3__114__split_bufferIP6CourseRNS_9allocatorIS2_EEE5clearB7v160006Ev, symObjAddr: 0x81EC, symBinAddr: 0x10000A104, symSize: 0x28 }
  - { offsetInCU: 0x1467F, offset: 0x1467F, size: 0x8, addend: 0x0, symName: __ZNKSt3__114__split_bufferIP6CourseRNS_9allocatorIS2_EEE8capacityB7v160006Ev, symObjAddr: 0x8214, symBinAddr: 0x10000A12C, symSize: 0x40 }
  - { offsetInCU: 0x146A5, offset: 0x146A5, size: 0x8, addend: 0x0, symName: __ZNSt3__114__split_bufferIP6CourseRNS_9allocatorIS2_EEE17__destruct_at_endB7v160006EPS2_, symObjAddr: 0x8254, symBinAddr: 0x10000A16C, symSize: 0x2C }
  - { offsetInCU: 0x146D9, offset: 0x146D9, size: 0x8, addend: 0x0, symName: __ZNSt3__114__split_bufferIP6CourseRNS_9allocatorIS2_EEE17__destruct_at_endB7v160006EPS2_NS_17integral_constantIbLb0EEE, symObjAddr: 0x8280, symBinAddr: 0x10000A198, symSize: 0x94 }
  - { offsetInCU: 0x1471A, offset: 0x1471A, size: 0x8, addend: 0x0, symName: __ZNKSt3__114__split_bufferIP6CourseRNS_9allocatorIS2_EEE9__end_capB7v160006Ev, symObjAddr: 0x8314, symBinAddr: 0x10000A22C, symSize: 0x28 }
  - { offsetInCU: 0x14740, offset: 0x14740, size: 0x8, addend: 0x0, symName: __ZNKSt3__117__compressed_pairIPP6CourseRNS_9allocatorIS2_EEE5firstB7v160006Ev, symObjAddr: 0x833C, symBinAddr: 0x10000A254, symSize: 0x24 }
  - { offsetInCU: 0x14766, offset: 0x14766, size: 0x8, addend: 0x0, symName: __ZNKSt3__16vectorIP6CourseNS_9allocatorIS2_EEE17__annotate_shrinkB7v160006Em, symObjAddr: 0x8360, symBinAddr: 0x10000A278, symSize: 0xB4 }
  - { offsetInCU: 0x1479B, offset: 0x1479B, size: 0x8, addend: 0x0, symName: __ZNSt3__16vectorIP6EventsNS_9allocatorIS2_EEEC2B7v160006Ev, symObjAddr: 0x8414, symBinAddr: 0x10000A32C, symSize: 0x4C }
  - { offsetInCU: 0x147C5, offset: 0x147C5, size: 0x8, addend: 0x0, symName: __ZNSt3__117__compressed_pairIPP6EventsNS_9allocatorIS2_EEEC1B7v160006IDnNS_18__default_init_tagEEEOT_OT0_, symObjAddr: 0x8460, symBinAddr: 0x10000A378, symSize: 0x3C }
  - { offsetInCU: 0x1481D, offset: 0x1481D, size: 0x8, addend: 0x0, symName: __ZNSt3__117__compressed_pairIPP6EventsNS_9allocatorIS2_EEEC2B7v160006IDnNS_18__default_init_tagEEEOT_OT0_, symObjAddr: 0x84AC, symBinAddr: 0x10000A3C4, symSize: 0x40 }
  - { offsetInCU: 0x14875, offset: 0x14875, size: 0x8, addend: 0x0, symName: __ZNSt3__122__compressed_pair_elemIPP6EventsLi0ELb0EEC2B7v160006IDnvEEOT_, symObjAddr: 0x84EC, symBinAddr: 0x10000A404, symSize: 0x1C }
  - { offsetInCU: 0x148B7, offset: 0x148B7, size: 0x8, addend: 0x0, symName: __ZNSt3__122__compressed_pair_elemINS_9allocatorIP6EventsEELi1ELb1EEC2B7v160006ENS_18__default_init_tagE, symObjAddr: 0x8508, symBinAddr: 0x10000A420, symSize: 0x2C }
  - { offsetInCU: 0x148EC, offset: 0x148EC, size: 0x8, addend: 0x0, symName: __ZNSt3__19allocatorIP6EventsEC2B7v160006Ev, symObjAddr: 0x8534, symBinAddr: 0x10000A44C, symSize: 0x2C }
  - { offsetInCU: 0x14916, offset: 0x14916, size: 0x8, addend: 0x0, symName: __ZNSt3__116__non_trivial_ifILb1ENS_9allocatorIP6EventsEEEC2B7v160006Ev, symObjAddr: 0x8560, symBinAddr: 0x10000A478, symSize: 0x14 }
  - { offsetInCU: 0x14940, offset: 0x14940, size: 0x8, addend: 0x0, symName: __ZNSt3__16vectorIP14RequiredCourseNS_9allocatorIS2_EEEC2B7v160006Ev, symObjAddr: 0x8574, symBinAddr: 0x10000A48C, symSize: 0x4C }
  - { offsetInCU: 0x1496A, offset: 0x1496A, size: 0x8, addend: 0x0, symName: __ZNSt3__117__compressed_pairIPP14RequiredCourseNS_9allocatorIS2_EEEC1B7v160006IDnNS_18__default_init_tagEEEOT_OT0_, symObjAddr: 0x85C0, symBinAddr: 0x10000A4D8, symSize: 0x3C }
  - { offsetInCU: 0x149C2, offset: 0x149C2, size: 0x8, addend: 0x0, symName: __ZNSt3__117__compressed_pairIPP14RequiredCourseNS_9allocatorIS2_EEEC2B7v160006IDnNS_18__default_init_tagEEEOT_OT0_, symObjAddr: 0x860C, symBinAddr: 0x10000A524, symSize: 0x40 }
  - { offsetInCU: 0x14A1A, offset: 0x14A1A, size: 0x8, addend: 0x0, symName: __ZNSt3__122__compressed_pair_elemIPP14RequiredCourseLi0ELb0EEC2B7v160006IDnvEEOT_, symObjAddr: 0x864C, symBinAddr: 0x10000A564, symSize: 0x1C }
  - { offsetInCU: 0x14A5C, offset: 0x14A5C, size: 0x8, addend: 0x0, symName: __ZNSt3__122__compressed_pair_elemINS_9allocatorIP14RequiredCourseEELi1ELb1EEC2B7v160006ENS_18__default_init_tagE, symObjAddr: 0x8668, symBinAddr: 0x10000A580, symSize: 0x2C }
  - { offsetInCU: 0x14A91, offset: 0x14A91, size: 0x8, addend: 0x0, symName: __ZNSt3__19allocatorIP14RequiredCourseEC2B7v160006Ev, symObjAddr: 0x8694, symBinAddr: 0x10000A5AC, symSize: 0x2C }
  - { offsetInCU: 0x14ABB, offset: 0x14ABB, size: 0x8, addend: 0x0, symName: __ZNSt3__116__non_trivial_ifILb1ENS_9allocatorIP14RequiredCourseEEEC2B7v160006Ev, symObjAddr: 0x86C0, symBinAddr: 0x10000A5D8, symSize: 0x14 }
  - { offsetInCU: 0x14AE5, offset: 0x14AE5, size: 0x8, addend: 0x0, symName: __ZNSt3__16vectorIP6EventsNS_9allocatorIS2_EEED2B7v160006Ev, symObjAddr: 0x86D4, symBinAddr: 0x10000A5EC, symSize: 0x3C }
  - { offsetInCU: 0x14B0F, offset: 0x14B0F, size: 0x8, addend: 0x0, symName: __ZNSt3__16vectorIP6EventsNS_9allocatorIS2_EEE16__destroy_vectorC1ERS5_, symObjAddr: 0x8710, symBinAddr: 0x10000A628, symSize: 0x34 }
  - { offsetInCU: 0x14B48, offset: 0x14B48, size: 0x8, addend: 0x0, symName: __ZNSt3__16vectorIP6EventsNS_9allocatorIS2_EEE16__destroy_vectorclB7v160006Ev, symObjAddr: 0x8744, symBinAddr: 0x10000A65C, symSize: 0x9C }
  - { offsetInCU: 0x14B6E, offset: 0x14B6E, size: 0x8, addend: 0x0, symName: __ZNSt3__16vectorIP6EventsNS_9allocatorIS2_EEE16__destroy_vectorC2ERS5_, symObjAddr: 0x87E0, symBinAddr: 0x10000A6F8, symSize: 0x20 }
  - { offsetInCU: 0x14BA7, offset: 0x14BA7, size: 0x8, addend: 0x0, symName: __ZNKSt3__16vectorIP6EventsNS_9allocatorIS2_EEE17__annotate_deleteB7v160006Ev, symObjAddr: 0x8800, symBinAddr: 0x10000A718, symSize: 0xB8 }
  - { offsetInCU: 0x14BCD, offset: 0x14BCD, size: 0x8, addend: 0x0, symName: __ZNSt3__16vectorIP6EventsNS_9allocatorIS2_EEE7__clearB7v160006Ev, symObjAddr: 0x88C8, symBinAddr: 0x10000A7E0, symSize: 0x28 }
  - { offsetInCU: 0x14BF3, offset: 0x14BF3, size: 0x8, addend: 0x0, symName: __ZNSt3__116allocator_traitsINS_9allocatorIP6EventsEEE10deallocateB7v160006ERS4_PS3_m, symObjAddr: 0x88F0, symBinAddr: 0x10000A808, symSize: 0x34 }
  - { offsetInCU: 0x14C35, offset: 0x14C35, size: 0x8, addend: 0x0, symName: __ZNSt3__16vectorIP6EventsNS_9allocatorIS2_EEE7__allocB7v160006Ev, symObjAddr: 0x8924, symBinAddr: 0x10000A83C, symSize: 0x28 }
  - { offsetInCU: 0x14C5B, offset: 0x14C5B, size: 0x8, addend: 0x0, symName: __ZNKSt3__16vectorIP6EventsNS_9allocatorIS2_EEE8capacityB7v160006Ev, symObjAddr: 0x894C, symBinAddr: 0x10000A864, symSize: 0x40 }
  - { offsetInCU: 0x14C81, offset: 0x14C81, size: 0x8, addend: 0x0, symName: __ZNKSt3__16vectorIP6EventsNS_9allocatorIS2_EEE31__annotate_contiguous_containerB7v160006EPKvS7_S7_S7_, symObjAddr: 0x898C, symBinAddr: 0x10000A8A4, symSize: 0x20 }
  - { offsetInCU: 0x14CD3, offset: 0x14CD3, size: 0x8, addend: 0x0, symName: __ZNKSt3__16vectorIP6EventsNS_9allocatorIS2_EEE4dataB7v160006Ev, symObjAddr: 0x89AC, symBinAddr: 0x10000A8C4, symSize: 0x28 }
  - { offsetInCU: 0x14CF9, offset: 0x14CF9, size: 0x8, addend: 0x0, symName: __ZNSt3__16vectorIP6EventsNS_9allocatorIS2_EEE22__base_destruct_at_endB7v160006EPS2_, symObjAddr: 0x89E8, symBinAddr: 0x10000A900, symSize: 0xA0 }
  - { offsetInCU: 0x14D3D, offset: 0x14D3D, size: 0x8, addend: 0x0, symName: __ZNSt3__116allocator_traitsINS_9allocatorIP6EventsEEE7destroyB7v160006IS3_vEEvRS4_PT_, symObjAddr: 0x8A88, symBinAddr: 0x10000A9A0, symSize: 0x2C }
  - { offsetInCU: 0x14D7A, offset: 0x14D7A, size: 0x8, addend: 0x0, symName: __ZNSt3__19allocatorIP6EventsE7destroyB7v160006EPS2_, symObjAddr: 0x8AB4, symBinAddr: 0x10000A9CC, symSize: 0x14 }
  - { offsetInCU: 0x14DAE, offset: 0x14DAE, size: 0x8, addend: 0x0, symName: __ZNSt3__19allocatorIP6EventsE10deallocateB7v160006EPS2_m, symObjAddr: 0x8AC8, symBinAddr: 0x10000A9E0, symSize: 0x70 }
  - { offsetInCU: 0x14DF0, offset: 0x14DF0, size: 0x8, addend: 0x0, symName: __ZNSt3__117__compressed_pairIPP6EventsNS_9allocatorIS2_EEE6secondB7v160006Ev, symObjAddr: 0x8B38, symBinAddr: 0x10000AA50, symSize: 0x24 }
  - { offsetInCU: 0x14E16, offset: 0x14E16, size: 0x8, addend: 0x0, symName: __ZNSt3__122__compressed_pair_elemINS_9allocatorIP6EventsEELi1ELb1EE5__getB7v160006Ev, symObjAddr: 0x8B5C, symBinAddr: 0x10000AA74, symSize: 0x14 }
  - { offsetInCU: 0x14E3C, offset: 0x14E3C, size: 0x8, addend: 0x0, symName: __ZNKSt3__16vectorIP6EventsNS_9allocatorIS2_EEE9__end_capB7v160006Ev, symObjAddr: 0x8B70, symBinAddr: 0x10000AA88, symSize: 0x28 }
  - { offsetInCU: 0x14E62, offset: 0x14E62, size: 0x8, addend: 0x0, symName: __ZNKSt3__117__compressed_pairIPP6EventsNS_9allocatorIS2_EEE5firstB7v160006Ev, symObjAddr: 0x8B98, symBinAddr: 0x10000AAB0, symSize: 0x24 }
  - { offsetInCU: 0x14E88, offset: 0x14E88, size: 0x8, addend: 0x0, symName: __ZNKSt3__122__compressed_pair_elemIPP6EventsLi0ELb0EE5__getB7v160006Ev, symObjAddr: 0x8BBC, symBinAddr: 0x10000AAD4, symSize: 0x14 }
  - { offsetInCU: 0x14EAE, offset: 0x14EAE, size: 0x8, addend: 0x0, symName: __ZNSt3__16vectorIP14RequiredCourseNS_9allocatorIS2_EEED2B7v160006Ev, symObjAddr: 0x8BD0, symBinAddr: 0x10000AAE8, symSize: 0x3C }
  - { offsetInCU: 0x14ED8, offset: 0x14ED8, size: 0x8, addend: 0x0, symName: __ZNSt3__16vectorIP14RequiredCourseNS_9allocatorIS2_EEE16__destroy_vectorC1ERS5_, symObjAddr: 0x8C0C, symBinAddr: 0x10000AB24, symSize: 0x34 }
  - { offsetInCU: 0x14F11, offset: 0x14F11, size: 0x8, addend: 0x0, symName: __ZNSt3__16vectorIP14RequiredCourseNS_9allocatorIS2_EEE16__destroy_vectorclB7v160006Ev, symObjAddr: 0x8C40, symBinAddr: 0x10000AB58, symSize: 0x9C }
  - { offsetInCU: 0x14F37, offset: 0x14F37, size: 0x8, addend: 0x0, symName: __ZNSt3__16vectorIP14RequiredCourseNS_9allocatorIS2_EEE16__destroy_vectorC2ERS5_, symObjAddr: 0x8CDC, symBinAddr: 0x10000ABF4, symSize: 0x20 }
  - { offsetInCU: 0x14F70, offset: 0x14F70, size: 0x8, addend: 0x0, symName: __ZNKSt3__16vectorIP14RequiredCourseNS_9allocatorIS2_EEE17__annotate_deleteB7v160006Ev, symObjAddr: 0x8CFC, symBinAddr: 0x10000AC14, symSize: 0xB8 }
  - { offsetInCU: 0x14F96, offset: 0x14F96, size: 0x8, addend: 0x0, symName: __ZNSt3__16vectorIP14RequiredCourseNS_9allocatorIS2_EEE7__clearB7v160006Ev, symObjAddr: 0x8DC4, symBinAddr: 0x10000ACDC, symSize: 0x28 }
  - { offsetInCU: 0x14FBC, offset: 0x14FBC, size: 0x8, addend: 0x0, symName: __ZNSt3__116allocator_traitsINS_9allocatorIP14RequiredCourseEEE10deallocateB7v160006ERS4_PS3_m, symObjAddr: 0x8DEC, symBinAddr: 0x10000AD04, symSize: 0x34 }
  - { offsetInCU: 0x14FFE, offset: 0x14FFE, size: 0x8, addend: 0x0, symName: __ZNSt3__16vectorIP14RequiredCourseNS_9allocatorIS2_EEE7__allocB7v160006Ev, symObjAddr: 0x8E20, symBinAddr: 0x10000AD38, symSize: 0x28 }
  - { offsetInCU: 0x15024, offset: 0x15024, size: 0x8, addend: 0x0, symName: __ZNKSt3__16vectorIP14RequiredCourseNS_9allocatorIS2_EEE8capacityB7v160006Ev, symObjAddr: 0x8E48, symBinAddr: 0x10000AD60, symSize: 0x40 }
  - { offsetInCU: 0x1504A, offset: 0x1504A, size: 0x8, addend: 0x0, symName: __ZNKSt3__16vectorIP14RequiredCourseNS_9allocatorIS2_EEE31__annotate_contiguous_containerB7v160006EPKvS7_S7_S7_, symObjAddr: 0x8E88, symBinAddr: 0x10000ADA0, symSize: 0x20 }
  - { offsetInCU: 0x1509C, offset: 0x1509C, size: 0x8, addend: 0x0, symName: __ZNKSt3__16vectorIP14RequiredCourseNS_9allocatorIS2_EEE4dataB7v160006Ev, symObjAddr: 0x8EA8, symBinAddr: 0x10000ADC0, symSize: 0x28 }
  - { offsetInCU: 0x150C2, offset: 0x150C2, size: 0x8, addend: 0x0, symName: __ZNSt3__16vectorIP14RequiredCourseNS_9allocatorIS2_EEE22__base_destruct_at_endB7v160006EPS2_, symObjAddr: 0x8EE4, symBinAddr: 0x10000ADFC, symSize: 0xA0 }
  - { offsetInCU: 0x15106, offset: 0x15106, size: 0x8, addend: 0x0, symName: __ZNSt3__116allocator_traitsINS_9allocatorIP14RequiredCourseEEE7destroyB7v160006IS3_vEEvRS4_PT_, symObjAddr: 0x8F84, symBinAddr: 0x10000AE9C, symSize: 0x2C }
  - { offsetInCU: 0x15143, offset: 0x15143, size: 0x8, addend: 0x0, symName: __ZNSt3__19allocatorIP14RequiredCourseE7destroyB7v160006EPS2_, symObjAddr: 0x8FB0, symBinAddr: 0x10000AEC8, symSize: 0x14 }
  - { offsetInCU: 0x15177, offset: 0x15177, size: 0x8, addend: 0x0, symName: __ZNSt3__19allocatorIP14RequiredCourseE10deallocateB7v160006EPS2_m, symObjAddr: 0x8FC4, symBinAddr: 0x10000AEDC, symSize: 0x70 }
  - { offsetInCU: 0x151B9, offset: 0x151B9, size: 0x8, addend: 0x0, symName: __ZNSt3__117__compressed_pairIPP14RequiredCourseNS_9allocatorIS2_EEE6secondB7v160006Ev, symObjAddr: 0x9034, symBinAddr: 0x10000AF4C, symSize: 0x24 }
  - { offsetInCU: 0x151DF, offset: 0x151DF, size: 0x8, addend: 0x0, symName: __ZNSt3__122__compressed_pair_elemINS_9allocatorIP14RequiredCourseEELi1ELb1EE5__getB7v160006Ev, symObjAddr: 0x9058, symBinAddr: 0x10000AF70, symSize: 0x14 }
  - { offsetInCU: 0x15205, offset: 0x15205, size: 0x8, addend: 0x0, symName: __ZNKSt3__16vectorIP14RequiredCourseNS_9allocatorIS2_EEE9__end_capB7v160006Ev, symObjAddr: 0x906C, symBinAddr: 0x10000AF84, symSize: 0x28 }
  - { offsetInCU: 0x1522B, offset: 0x1522B, size: 0x8, addend: 0x0, symName: __ZNKSt3__117__compressed_pairIPP14RequiredCourseNS_9allocatorIS2_EEE5firstB7v160006Ev, symObjAddr: 0x9094, symBinAddr: 0x10000AFAC, symSize: 0x24 }
  - { offsetInCU: 0x15251, offset: 0x15251, size: 0x8, addend: 0x0, symName: __ZNKSt3__122__compressed_pair_elemIPP14RequiredCourseLi0ELb0EE5__getB7v160006Ev, symObjAddr: 0x90B8, symBinAddr: 0x10000AFD0, symSize: 0x14 }
  - { offsetInCU: 0x15277, offset: 0x15277, size: 0x8, addend: 0x0, symName: __ZNSt3__116allocator_traitsINS_9allocatorIcEEE37select_on_container_copy_constructionB7v160006IS2_vvEES2_RKS2_, symObjAddr: 0x90CC, symBinAddr: 0x10000AFE4, symSize: 0x10 }
  - { offsetInCU: 0x152A6, offset: 0x152A6, size: 0x8, addend: 0x0, symName: __ZNKSt3__112basic_stringIcNS_11char_traitsIcEENS_9allocatorIcEEE13get_allocatorB7v160006Ev, symObjAddr: 0x90DC, symBinAddr: 0x10000AFF4, symSize: 0x24 }
  - { offsetInCU: 0x152CC, offset: 0x152CC, size: 0x8, addend: 0x0, symName: __ZNSt3__112basic_stringIcNS_11char_traitsIcEENS_9allocatorIcEEEC1B7v160006ENS_24__uninitialized_size_tagEmRKS4_, symObjAddr: 0x9100, symBinAddr: 0x10000B018, symSize: 0x3C }
  - { offsetInCU: 0x1531F, offset: 0x1531F, size: 0x8, addend: 0x0, symName: __ZNSt3__112basic_stringIcNS_11char_traitsIcEENS_9allocatorIcEEE13__get_pointerB7v160006Ev, symObjAddr: 0x9150, symBinAddr: 0x10000B068, symSize: 0x54 }
  - { offsetInCU: 0x15345, offset: 0x15345, size: 0x8, addend: 0x0, symName: __ZNSt3__111char_traitsIcE4copyEPcPKcm, symObjAddr: 0x91A4, symBinAddr: 0x10000B0BC, symSize: 0x80 }
  - { offsetInCU: 0x15384, offset: 0x15384, size: 0x8, addend: 0x0, symName: __ZNSt3__111char_traitsIcE6assignEPcmc, symObjAddr: 0x9224, symBinAddr: 0x10000B13C, symSize: 0x58 }
  - { offsetInCU: 0x153C3, offset: 0x153C3, size: 0x8, addend: 0x0, symName: __ZNSt3__112basic_stringIcNS_11char_traitsIcEENS_9allocatorIcEEEC2B7v160006ENS_24__uninitialized_size_tagEmRKS4_, symObjAddr: 0x927C, symBinAddr: 0x10000B194, symSize: 0x118 }
  - { offsetInCU: 0x15443, offset: 0x15443, size: 0x8, addend: 0x0, symName: __ZNSt3__117__compressed_pairINS_12basic_stringIcNS_11char_traitsIcEENS_9allocatorIcEEE5__repES5_EC1B7v160006INS_18__default_init_tagERKS5_EEOT_OT0_, symObjAddr: 0x9394, symBinAddr: 0x10000B2AC, symSize: 0x3C }
  - { offsetInCU: 0x1549B, offset: 0x1549B, size: 0x8, addend: 0x0, symName: __ZNKSt3__112basic_stringIcNS_11char_traitsIcEENS_9allocatorIcEEE20__throw_length_errorB7v160006Ev, symObjAddr: 0x93D0, symBinAddr: 0x10000B2E8, symSize: 0x1C }
  - { offsetInCU: 0x154C1, offset: 0x154C1, size: 0x8, addend: 0x0, symName: __ZNSt3__112basic_stringIcNS_11char_traitsIcEENS_9allocatorIcEEE13__fits_in_ssoB7v160006Em, symObjAddr: 0x93EC, symBinAddr: 0x10000B304, symSize: 0x4C }
  - { offsetInCU: 0x154E5, offset: 0x154E5, size: 0x8, addend: 0x0, symName: __ZNSt3__117__compressed_pairINS_12basic_stringIcNS_11char_traitsIcEENS_9allocatorIcEEE5__repES5_EC2B7v160006INS_18__default_init_tagERKS5_EEOT_OT0_, symObjAddr: 0x9438, symBinAddr: 0x10000B350, symSize: 0x40 }
  - { offsetInCU: 0x1553D, offset: 0x1553D, size: 0x8, addend: 0x0, symName: __ZNSt3__122__compressed_pair_elemINS_9allocatorIcEELi1ELb1EEC2B7v160006IRKS2_vEEOT_, symObjAddr: 0x9478, symBinAddr: 0x10000B390, symSize: 0x18 }
  - { offsetInCU: 0x155B7, offset: 0x155B7, size: 0x8, addend: 0x0, symName: __ZNKSt3__114__copy_trivialclB7v160006IKccLi0EEENS_4pairIPT_PT0_EES5_S5_S7_, symObjAddr: 0x96C0, symBinAddr: 0x10000B5D8, symSize: 0x48 }
  - { offsetInCU: 0x15639, offset: 0x15639, size: 0x8, addend: 0x0, symName: __ZNSt3__14pairIPKcS2_EC1B7v160006ERKS2_S5_, symObjAddr: 0x983C, symBinAddr: 0x10000B754, symSize: 0x3C }
  - { offsetInCU: 0x1567F, offset: 0x1567F, size: 0x8, addend: 0x0, symName: __ZNSt3__14pairIPKcS2_EC2B7v160006ERKS2_S5_, symObjAddr: 0x9878, symBinAddr: 0x10000B790, symSize: 0x34 }
  - { offsetInCU: 0x156C5, offset: 0x156C5, size: 0x8, addend: 0x0, symName: __ZNSt3__118__unwrap_iter_implIPKcLb1EE8__unwrapB7v160006ES2_, symObjAddr: 0x98AC, symBinAddr: 0x10000B7C4, symSize: 0x24 }
  - { offsetInCU: 0x156E8, offset: 0x156E8, size: 0x8, addend: 0x0, symName: __ZNSt3__14pairIPKcPcEC1B7v160006ERKS2_RKS3_, symObjAddr: 0x9984, symBinAddr: 0x10000B89C, symSize: 0x3C }
  - { offsetInCU: 0x1572E, offset: 0x1572E, size: 0x8, addend: 0x0, symName: __ZNSt3__14pairIPKcPcEC2B7v160006ERKS2_RKS3_, symObjAddr: 0x99C0, symBinAddr: 0x10000B8D8, symSize: 0x34 }
  - { offsetInCU: 0x15774, offset: 0x15774, size: 0x8, addend: 0x0, symName: __ZNSt3__118__unwrap_iter_implIPcLb1EE8__unwrapB7v160006ES1_, symObjAddr: 0x99F4, symBinAddr: 0x10000B90C, symSize: 0x24 }
  - { offsetInCU: 0x15797, offset: 0x15797, size: 0x8, addend: 0x0, symName: __ZNSt3__118__unwrap_iter_implIPKcLb1EE8__rewrapB7v160006ES2_S2_, symObjAddr: 0x9A68, symBinAddr: 0x10000B980, symSize: 0x48 }
  - { offsetInCU: 0x157C8, offset: 0x157C8, size: 0x8, addend: 0x0, symName: __ZNSt3__118__unwrap_iter_implIPcLb1EE8__rewrapB7v160006ES1_S1_, symObjAddr: 0x9AB0, symBinAddr: 0x10000B9C8, symSize: 0x48 }
  - { offsetInCU: 0x157F9, offset: 0x157F9, size: 0x8, addend: 0x0, symName: __ZNKSt3__19basic_iosIcNS_11char_traitsIcEEE4failB7v160006Ev, symObjAddr: 0x9BB4, symBinAddr: 0x10000BACC, symSize: 0x28 }
  - { offsetInCU: 0x1581F, offset: 0x1581F, size: 0x8, addend: 0x0, symName: __ZNKSt3__18ios_base4failB7v160006Ev, symObjAddr: 0x9BDC, symBinAddr: 0x10000BAF4, symSize: 0x28 }
  - { offsetInCU: 0x15847, offset: 0x15847, size: 0x8, addend: 0x0, symName: __ZNSt3__112basic_stringIcNS_11char_traitsIcEENS_9allocatorIcEEEC2B7v160006IDnEEPKc, symObjAddr: 0x9C04, symBinAddr: 0x10000BB1C, symSize: 0x60 }
  - { offsetInCU: 0x15885, offset: 0x15885, size: 0x8, addend: 0x0, symName: __ZNSt3__111char_traitsIcE7compareEPKcS3_m, symObjAddr: 0x9C64, symBinAddr: 0x10000BB7C, symSize: 0x80 }
  - { offsetInCU: 0x158C4, offset: 0x158C4, size: 0x8, addend: 0x0, symName: __ZNSt3__16vectorIP6EventsNS_9allocatorIS2_EEE9__end_capB7v160006Ev, symObjAddr: 0x9D18, symBinAddr: 0x10000BC30, symSize: 0x28 }
  - { offsetInCU: 0x158F0, offset: 0x158F0, size: 0x8, addend: 0x0, symName: __ZNSt3__16vectorIP6EventsNS_9allocatorIS2_EEE22__construct_one_at_endB7v160006IJS2_EEEvDpOT_, symObjAddr: 0x9D40, symBinAddr: 0x10000BC58, symSize: 0x98 }
  - { offsetInCU: 0x1593F, offset: 0x1593F, size: 0x8, addend: 0x0, symName: __ZNSt3__16vectorIP6EventsNS_9allocatorIS2_EEE21__push_back_slow_pathIS2_EEvOT_, symObjAddr: 0x9DD8, symBinAddr: 0x10000BCF0, symSize: 0xE0 }
  - { offsetInCU: 0x1599D, offset: 0x1599D, size: 0x8, addend: 0x0, symName: __ZNSt3__117__compressed_pairIPP6EventsNS_9allocatorIS2_EEE5firstB7v160006Ev, symObjAddr: 0x9EB8, symBinAddr: 0x10000BDD0, symSize: 0x24 }
  - { offsetInCU: 0x159C3, offset: 0x159C3, size: 0x8, addend: 0x0, symName: __ZNSt3__122__compressed_pair_elemIPP6EventsLi0ELb0EE5__getB7v160006Ev, symObjAddr: 0x9EDC, symBinAddr: 0x10000BDF4, symSize: 0x14 }
  - { offsetInCU: 0x15A02, offset: 0x15A02, size: 0x8, addend: 0x0, symName: __ZNSt3__16vectorIP6EventsNS_9allocatorIS2_EEE21_ConstructTransactionC1B7v160006ERS5_m, symObjAddr: 0x9EF0, symBinAddr: 0x10000BE08, symSize: 0x3C }
  - { offsetInCU: 0x15A4A, offset: 0x15A4A, size: 0x8, addend: 0x0, symName: __ZNSt3__116allocator_traitsINS_9allocatorIP6EventsEEE9constructB7v160006IS3_JS3_EvEEvRS4_PT_DpOT0_, symObjAddr: 0x9F2C, symBinAddr: 0x10000BE44, symSize: 0x34 }
  - { offsetInCU: 0x15AA1, offset: 0x15AA1, size: 0x8, addend: 0x0, symName: __ZNSt3__16vectorIP6EventsNS_9allocatorIS2_EEE21_ConstructTransactionD1B7v160006Ev, symObjAddr: 0x9F60, symBinAddr: 0x10000BE78, symSize: 0x2C }
  - { offsetInCU: 0x15ACB, offset: 0x15ACB, size: 0x8, addend: 0x0, symName: __ZNSt3__16vectorIP6EventsNS_9allocatorIS2_EEE21_ConstructTransactionC2B7v160006ERS5_m, symObjAddr: 0x9F8C, symBinAddr: 0x10000BEA4, symSize: 0x44 }
  - { offsetInCU: 0x15B13, offset: 0x15B13, size: 0x8, addend: 0x0, symName: __ZNSt3__19allocatorIP6EventsE9constructB7v160006IS2_JS2_EEEvPT_DpOT0_, symObjAddr: 0x9FD0, symBinAddr: 0x10000BEE8, symSize: 0x28 }
  - { offsetInCU: 0x15B69, offset: 0x15B69, size: 0x8, addend: 0x0, symName: __ZNSt3__16vectorIP6EventsNS_9allocatorIS2_EEE21_ConstructTransactionD2B7v160006Ev, symObjAddr: 0x9FF8, symBinAddr: 0x10000BF10, symSize: 0x20 }
  - { offsetInCU: 0x15B93, offset: 0x15B93, size: 0x8, addend: 0x0, symName: __ZNKSt3__16vectorIP6EventsNS_9allocatorIS2_EEE11__recommendB7v160006Em, symObjAddr: 0xA018, symBinAddr: 0x10000BF30, symSize: 0xB4 }
  - { offsetInCU: 0x15BE8, offset: 0x15BE8, size: 0x8, addend: 0x0, symName: __ZNSt3__114__split_bufferIP6EventsRNS_9allocatorIS2_EEEC1EmmS5_, symObjAddr: 0xA0CC, symBinAddr: 0x10000BFE4, symSize: 0x44 }
  - { offsetInCU: 0x15C3E, offset: 0x15C3E, size: 0x8, addend: 0x0, symName: __ZNSt3__114__split_bufferIP6EventsRNS_9allocatorIS2_EEED1Ev, symObjAddr: 0xA228, symBinAddr: 0x10000C140, symSize: 0x2C }
  - { offsetInCU: 0x15C6A, offset: 0x15C6A, size: 0x8, addend: 0x0, symName: __ZNKSt3__16vectorIP6EventsNS_9allocatorIS2_EEE8max_sizeEv, symObjAddr: 0xA254, symBinAddr: 0x10000C16C, symSize: 0x74 }
  - { offsetInCU: 0x15C92, offset: 0x15C92, size: 0x8, addend: 0x0, symName: __ZNKSt3__16vectorIP6EventsNS_9allocatorIS2_EEE20__throw_length_errorB7v160006Ev, symObjAddr: 0xA2C8, symBinAddr: 0x10000C1E0, symSize: 0x1C }
  - { offsetInCU: 0x15CC2, offset: 0x15CC2, size: 0x8, addend: 0x0, symName: __ZNSt3__116allocator_traitsINS_9allocatorIP6EventsEEE8max_sizeB7v160006IS4_vEEmRKS4_, symObjAddr: 0xA2E4, symBinAddr: 0x10000C1FC, symSize: 0x24 }
  - { offsetInCU: 0x15CF0, offset: 0x15CF0, size: 0x8, addend: 0x0, symName: __ZNKSt3__16vectorIP6EventsNS_9allocatorIS2_EEE7__allocB7v160006Ev, symObjAddr: 0xA308, symBinAddr: 0x10000C220, symSize: 0x28 }
  - { offsetInCU: 0x15D16, offset: 0x15D16, size: 0x8, addend: 0x0, symName: __ZNKSt3__19allocatorIP6EventsE8max_sizeB7v160006Ev, symObjAddr: 0xA330, symBinAddr: 0x10000C248, symSize: 0x14 }
  - { offsetInCU: 0x15D3C, offset: 0x15D3C, size: 0x8, addend: 0x0, symName: __ZNKSt3__117__compressed_pairIPP6EventsNS_9allocatorIS2_EEE6secondB7v160006Ev, symObjAddr: 0xA344, symBinAddr: 0x10000C25C, symSize: 0x24 }
  - { offsetInCU: 0x15D62, offset: 0x15D62, size: 0x8, addend: 0x0, symName: __ZNKSt3__122__compressed_pair_elemINS_9allocatorIP6EventsEELi1ELb1EE5__getB7v160006Ev, symObjAddr: 0xA368, symBinAddr: 0x10000C280, symSize: 0x14 }
  - { offsetInCU: 0x15D88, offset: 0x15D88, size: 0x8, addend: 0x0, symName: __ZNSt3__114__split_bufferIP6EventsRNS_9allocatorIS2_EEEC2EmmS5_, symObjAddr: 0xA37C, symBinAddr: 0x10000C294, symSize: 0xD4 }
  - { offsetInCU: 0x15DFC, offset: 0x15DFC, size: 0x8, addend: 0x0, symName: __ZNSt3__117__compressed_pairIPP6EventsRNS_9allocatorIS2_EEEC1B7v160006IDnS6_EEOT_OT0_, symObjAddr: 0xA450, symBinAddr: 0x10000C368, symSize: 0x3C }
  - { offsetInCU: 0x15E54, offset: 0x15E54, size: 0x8, addend: 0x0, symName: __ZNSt3__114__split_bufferIP6EventsRNS_9allocatorIS2_EEE7__allocB7v160006Ev, symObjAddr: 0xA4CC, symBinAddr: 0x10000C3E4, symSize: 0x28 }
  - { offsetInCU: 0x15E7A, offset: 0x15E7A, size: 0x8, addend: 0x0, symName: __ZNSt3__114__split_bufferIP6EventsRNS_9allocatorIS2_EEE9__end_capB7v160006Ev, symObjAddr: 0xA4F4, symBinAddr: 0x10000C40C, symSize: 0x28 }
  - { offsetInCU: 0x15EA0, offset: 0x15EA0, size: 0x8, addend: 0x0, symName: __ZNSt3__117__compressed_pairIPP6EventsRNS_9allocatorIS2_EEEC2B7v160006IDnS6_EEOT_OT0_, symObjAddr: 0xA51C, symBinAddr: 0x10000C434, symSize: 0x48 }
  - { offsetInCU: 0x15EF8, offset: 0x15EF8, size: 0x8, addend: 0x0, symName: __ZNSt3__122__compressed_pair_elemIRNS_9allocatorIP6EventsEELi1ELb0EEC2B7v160006IS5_vEEOT_, symObjAddr: 0xA564, symBinAddr: 0x10000C47C, symSize: 0x20 }
  - { offsetInCU: 0x15F3A, offset: 0x15F3A, size: 0x8, addend: 0x0, symName: __ZNSt3__19allocatorIP6EventsE8allocateB7v160006Em, symObjAddr: 0xA584, symBinAddr: 0x10000C49C, symSize: 0x84 }
  - { offsetInCU: 0x15F6E, offset: 0x15F6E, size: 0x8, addend: 0x0, symName: __ZNSt3__117__compressed_pairIPP6EventsRNS_9allocatorIS2_EEE6secondB7v160006Ev, symObjAddr: 0xA608, symBinAddr: 0x10000C520, symSize: 0x28 }
  - { offsetInCU: 0x15F94, offset: 0x15F94, size: 0x8, addend: 0x0, symName: __ZNSt3__122__compressed_pair_elemIRNS_9allocatorIP6EventsEELi1ELb0EE5__getB7v160006Ev, symObjAddr: 0xA630, symBinAddr: 0x10000C548, symSize: 0x18 }
  - { offsetInCU: 0x15FBA, offset: 0x15FBA, size: 0x8, addend: 0x0, symName: __ZNSt3__117__compressed_pairIPP6EventsRNS_9allocatorIS2_EEE5firstB7v160006Ev, symObjAddr: 0xA648, symBinAddr: 0x10000C560, symSize: 0x24 }
  - { offsetInCU: 0x15FE0, offset: 0x15FE0, size: 0x8, addend: 0x0, symName: __ZNSt3__116reverse_iteratorIPP6EventsEC1B7v160006ES3_, symObjAddr: 0xA754, symBinAddr: 0x10000C66C, symSize: 0x34 }
  - { offsetInCU: 0x16018, offset: 0x16018, size: 0x8, addend: 0x0, symName: __ZNKSt3__116reverse_iteratorIPP6EventsE4baseB7v160006Ev, symObjAddr: 0xA788, symBinAddr: 0x10000C6A0, symSize: 0x18 }
  - { offsetInCU: 0x1603E, offset: 0x1603E, size: 0x8, addend: 0x0, symName: __ZNKSt3__16vectorIP6EventsNS_9allocatorIS2_EEE14__annotate_newB7v160006Em, symObjAddr: 0xA7DC, symBinAddr: 0x10000C6F4, symSize: 0xAC }
  - { offsetInCU: 0x16073, offset: 0x16073, size: 0x8, addend: 0x0, symName: __ZNKSt3__116reverse_iteratorIPP6EventsEdeB7v160006Ev, symObjAddr: 0xA930, symBinAddr: 0x10000C848, symSize: 0x28 }
  - { offsetInCU: 0x160A7, offset: 0x160A7, size: 0x8, addend: 0x0, symName: __ZNSt3__116reverse_iteratorIPP6EventsEppB7v160006Ev, symObjAddr: 0xA958, symBinAddr: 0x10000C870, symSize: 0x20 }
  - { offsetInCU: 0x160D2, offset: 0x160D2, size: 0x8, addend: 0x0, symName: __ZNSt3__119__to_address_helperINS_16reverse_iteratorIPP6EventsEEvE6__callB7v160006ERKS5_, symObjAddr: 0xA9F0, symBinAddr: 0x10000C908, symSize: 0x4C }
  - { offsetInCU: 0x160F5, offset: 0x160F5, size: 0x8, addend: 0x0, symName: __ZNKSt3__116reverse_iteratorIPP6EventsEptB7v160006Ev, symObjAddr: 0xAA3C, symBinAddr: 0x10000C954, symSize: 0x24 }
  - { offsetInCU: 0x16135, offset: 0x16135, size: 0x8, addend: 0x0, symName: __ZNKSt3__111__move_loopINS_17_ClassicAlgPolicyEEclB7v160006INS_16reverse_iteratorIPP6EventsEES8_S8_EENS_4pairIT_T1_EESA_T0_SB_, symObjAddr: 0xACF0, symBinAddr: 0x10000CC08, symSize: 0xA0 }
  - { offsetInCU: 0x161A0, offset: 0x161A0, size: 0x8, addend: 0x0, symName: __ZNSt3__18_IterOpsINS_17_ClassicAlgPolicyEE11__iter_moveB7v160006IRNS_16reverse_iteratorIPP6EventsEEEENS_9enable_ifIXsr12is_referenceIDTdeclsr3stdE7declvalIRT_EEEEE5valueEDTclsr3stdE4movedeclsr3stdE7declvalISC_EEEEE4typeEOSB_, symObjAddr: 0xAEF0, symBinAddr: 0x10000CE08, symSize: 0x28 }
  - { offsetInCU: 0x161CC, offset: 0x161CC, size: 0x8, addend: 0x0, symName: __ZNSt3__18_IterOpsINS_17_ClassicAlgPolicyEE25__validate_iter_referenceB7v160006IRNS_16reverse_iteratorIPP6EventsEEEEvv, symObjAddr: 0xAF18, symBinAddr: 0x10000CE30, symSize: 0x4 }
  - { offsetInCU: 0x161EA, offset: 0x161EA, size: 0x8, addend: 0x0, symName: __ZNSt3__118__unwrap_iter_implINS_16reverse_iteratorIPP6EventsEELb0EE8__unwrapB7v160006ES5_, symObjAddr: 0xAF1C, symBinAddr: 0x10000CE34, symSize: 0x24 }
  - { offsetInCU: 0x1620D, offset: 0x1620D, size: 0x8, addend: 0x0, symName: __ZNSt3__14pairINS_16reverse_iteratorIPP6EventsEES5_EC1B7v160006ERKS5_S8_, symObjAddr: 0xAF40, symBinAddr: 0x10000CE58, symSize: 0x3C }
  - { offsetInCU: 0x16253, offset: 0x16253, size: 0x8, addend: 0x0, symName: __ZNSt3__14pairINS_16reverse_iteratorIPP6EventsEES5_EC2B7v160006ERKS5_S8_, symObjAddr: 0xAF7C, symBinAddr: 0x10000CE94, symSize: 0x34 }
  - { offsetInCU: 0x16299, offset: 0x16299, size: 0x8, addend: 0x0, symName: __ZNSt3__118__unwrap_iter_implINS_16reverse_iteratorIPP6EventsEELb0EE8__rewrapB7v160006ES5_S5_, symObjAddr: 0xAFB0, symBinAddr: 0x10000CEC8, symSize: 0x2C }
  - { offsetInCU: 0x162C7, offset: 0x162C7, size: 0x8, addend: 0x0, symName: __ZNSt3__116reverse_iteratorIPP6EventsEC2B7v160006ES3_, symObjAddr: 0xAFDC, symBinAddr: 0x10000CEF4, symSize: 0x28 }
  - { offsetInCU: 0x162FF, offset: 0x162FF, size: 0x8, addend: 0x0, symName: __ZNSt3__114__split_bufferIP6EventsRNS_9allocatorIS2_EEED2Ev, symObjAddr: 0xB004, symBinAddr: 0x10000CF1C, symSize: 0x80 }
  - { offsetInCU: 0x1632B, offset: 0x1632B, size: 0x8, addend: 0x0, symName: __ZNSt3__114__split_bufferIP6EventsRNS_9allocatorIS2_EEE5clearB7v160006Ev, symObjAddr: 0xB084, symBinAddr: 0x10000CF9C, symSize: 0x28 }
  - { offsetInCU: 0x16351, offset: 0x16351, size: 0x8, addend: 0x0, symName: __ZNKSt3__114__split_bufferIP6EventsRNS_9allocatorIS2_EEE8capacityB7v160006Ev, symObjAddr: 0xB0AC, symBinAddr: 0x10000CFC4, symSize: 0x40 }
  - { offsetInCU: 0x16377, offset: 0x16377, size: 0x8, addend: 0x0, symName: __ZNSt3__114__split_bufferIP6EventsRNS_9allocatorIS2_EEE17__destruct_at_endB7v160006EPS2_, symObjAddr: 0xB0EC, symBinAddr: 0x10000D004, symSize: 0x2C }
  - { offsetInCU: 0x163AB, offset: 0x163AB, size: 0x8, addend: 0x0, symName: __ZNSt3__114__split_bufferIP6EventsRNS_9allocatorIS2_EEE17__destruct_at_endB7v160006EPS2_NS_17integral_constantIbLb0EEE, symObjAddr: 0xB118, symBinAddr: 0x10000D030, symSize: 0x94 }
  - { offsetInCU: 0x163EC, offset: 0x163EC, size: 0x8, addend: 0x0, symName: __ZNKSt3__114__split_bufferIP6EventsRNS_9allocatorIS2_EEE9__end_capB7v160006Ev, symObjAddr: 0xB1AC, symBinAddr: 0x10000D0C4, symSize: 0x28 }
  - { offsetInCU: 0x16412, offset: 0x16412, size: 0x8, addend: 0x0, symName: __ZNKSt3__117__compressed_pairIPP6EventsRNS_9allocatorIS2_EEE5firstB7v160006Ev, symObjAddr: 0xB1D4, symBinAddr: 0x10000D0EC, symSize: 0x24 }
  - { offsetInCU: 0x16438, offset: 0x16438, size: 0x8, addend: 0x0, symName: __ZNSt3__16vectorIP14RequiredCourseNS_9allocatorIS2_EEE9__end_capB7v160006Ev, symObjAddr: 0xB1F8, symBinAddr: 0x10000D110, symSize: 0x28 }
  - { offsetInCU: 0x1645E, offset: 0x1645E, size: 0x8, addend: 0x0, symName: __ZNSt3__16vectorIP14RequiredCourseNS_9allocatorIS2_EEE22__construct_one_at_endB7v160006IJRKS2_EEEvDpOT_, symObjAddr: 0xB220, symBinAddr: 0x10000D138, symSize: 0x98 }
  - { offsetInCU: 0x164AD, offset: 0x164AD, size: 0x8, addend: 0x0, symName: __ZNSt3__16vectorIP14RequiredCourseNS_9allocatorIS2_EEE21__push_back_slow_pathIRKS2_EEvOT_, symObjAddr: 0xB2B8, symBinAddr: 0x10000D1D0, symSize: 0xE0 }
  - { offsetInCU: 0x1650B, offset: 0x1650B, size: 0x8, addend: 0x0, symName: __ZNSt3__117__compressed_pairIPP14RequiredCourseNS_9allocatorIS2_EEE5firstB7v160006Ev, symObjAddr: 0xB398, symBinAddr: 0x10000D2B0, symSize: 0x24 }
  - { offsetInCU: 0x16531, offset: 0x16531, size: 0x8, addend: 0x0, symName: __ZNSt3__122__compressed_pair_elemIPP14RequiredCourseLi0ELb0EE5__getB7v160006Ev, symObjAddr: 0xB3BC, symBinAddr: 0x10000D2D4, symSize: 0x14 }
  - { offsetInCU: 0x16570, offset: 0x16570, size: 0x8, addend: 0x0, symName: __ZNSt3__16vectorIP14RequiredCourseNS_9allocatorIS2_EEE21_ConstructTransactionC1B7v160006ERS5_m, symObjAddr: 0xB3D0, symBinAddr: 0x10000D2E8, symSize: 0x3C }
  - { offsetInCU: 0x165B8, offset: 0x165B8, size: 0x8, addend: 0x0, symName: __ZNSt3__116allocator_traitsINS_9allocatorIP14RequiredCourseEEE9constructB7v160006IS3_JRKS3_EvEEvRS4_PT_DpOT0_, symObjAddr: 0xB40C, symBinAddr: 0x10000D324, symSize: 0x34 }
  - { offsetInCU: 0x1660F, offset: 0x1660F, size: 0x8, addend: 0x0, symName: __ZNSt3__16vectorIP14RequiredCourseNS_9allocatorIS2_EEE21_ConstructTransactionD1B7v160006Ev, symObjAddr: 0xB440, symBinAddr: 0x10000D358, symSize: 0x2C }
  - { offsetInCU: 0x16639, offset: 0x16639, size: 0x8, addend: 0x0, symName: __ZNSt3__16vectorIP14RequiredCourseNS_9allocatorIS2_EEE21_ConstructTransactionC2B7v160006ERS5_m, symObjAddr: 0xB46C, symBinAddr: 0x10000D384, symSize: 0x44 }
  - { offsetInCU: 0x16681, offset: 0x16681, size: 0x8, addend: 0x0, symName: __ZNSt3__19allocatorIP14RequiredCourseE9constructB7v160006IS2_JRKS2_EEEvPT_DpOT0_, symObjAddr: 0xB4B0, symBinAddr: 0x10000D3C8, symSize: 0x28 }
  - { offsetInCU: 0x166D7, offset: 0x166D7, size: 0x8, addend: 0x0, symName: __ZNSt3__16vectorIP14RequiredCourseNS_9allocatorIS2_EEE21_ConstructTransactionD2B7v160006Ev, symObjAddr: 0xB4D8, symBinAddr: 0x10000D3F0, symSize: 0x20 }
  - { offsetInCU: 0x16701, offset: 0x16701, size: 0x8, addend: 0x0, symName: __ZNKSt3__16vectorIP14RequiredCourseNS_9allocatorIS2_EEE11__recommendB7v160006Em, symObjAddr: 0xB4F8, symBinAddr: 0x10000D410, symSize: 0xB4 }
  - { offsetInCU: 0x16756, offset: 0x16756, size: 0x8, addend: 0x0, symName: __ZNSt3__114__split_bufferIP14RequiredCourseRNS_9allocatorIS2_EEEC1EmmS5_, symObjAddr: 0xB5AC, symBinAddr: 0x10000D4C4, symSize: 0x44 }
  - { offsetInCU: 0x167AC, offset: 0x167AC, size: 0x8, addend: 0x0, symName: __ZNSt3__114__split_bufferIP14RequiredCourseRNS_9allocatorIS2_EEED1Ev, symObjAddr: 0xB708, symBinAddr: 0x10000D620, symSize: 0x2C }
  - { offsetInCU: 0x167D8, offset: 0x167D8, size: 0x8, addend: 0x0, symName: __ZNKSt3__16vectorIP14RequiredCourseNS_9allocatorIS2_EEE8max_sizeEv, symObjAddr: 0xB734, symBinAddr: 0x10000D64C, symSize: 0x74 }
  - { offsetInCU: 0x16800, offset: 0x16800, size: 0x8, addend: 0x0, symName: __ZNKSt3__16vectorIP14RequiredCourseNS_9allocatorIS2_EEE20__throw_length_errorB7v160006Ev, symObjAddr: 0xB7A8, symBinAddr: 0x10000D6C0, symSize: 0x1C }
  - { offsetInCU: 0x16830, offset: 0x16830, size: 0x8, addend: 0x0, symName: __ZNSt3__116allocator_traitsINS_9allocatorIP14RequiredCourseEEE8max_sizeB7v160006IS4_vEEmRKS4_, symObjAddr: 0xB7C4, symBinAddr: 0x10000D6DC, symSize: 0x24 }
  - { offsetInCU: 0x1685E, offset: 0x1685E, size: 0x8, addend: 0x0, symName: __ZNKSt3__16vectorIP14RequiredCourseNS_9allocatorIS2_EEE7__allocB7v160006Ev, symObjAddr: 0xB7E8, symBinAddr: 0x10000D700, symSize: 0x28 }
  - { offsetInCU: 0x16884, offset: 0x16884, size: 0x8, addend: 0x0, symName: __ZNKSt3__19allocatorIP14RequiredCourseE8max_sizeB7v160006Ev, symObjAddr: 0xB810, symBinAddr: 0x10000D728, symSize: 0x14 }
  - { offsetInCU: 0x168AA, offset: 0x168AA, size: 0x8, addend: 0x0, symName: __ZNKSt3__117__compressed_pairIPP14RequiredCourseNS_9allocatorIS2_EEE6secondB7v160006Ev, symObjAddr: 0xB824, symBinAddr: 0x10000D73C, symSize: 0x24 }
  - { offsetInCU: 0x168D0, offset: 0x168D0, size: 0x8, addend: 0x0, symName: __ZNKSt3__122__compressed_pair_elemINS_9allocatorIP14RequiredCourseEELi1ELb1EE5__getB7v160006Ev, symObjAddr: 0xB848, symBinAddr: 0x10000D760, symSize: 0x14 }
  - { offsetInCU: 0x168F6, offset: 0x168F6, size: 0x8, addend: 0x0, symName: __ZNSt3__114__split_bufferIP14RequiredCourseRNS_9allocatorIS2_EEEC2EmmS5_, symObjAddr: 0xB85C, symBinAddr: 0x10000D774, symSize: 0xD4 }
  - { offsetInCU: 0x1696A, offset: 0x1696A, size: 0x8, addend: 0x0, symName: __ZNSt3__117__compressed_pairIPP14RequiredCourseRNS_9allocatorIS2_EEEC1B7v160006IDnS6_EEOT_OT0_, symObjAddr: 0xB930, symBinAddr: 0x10000D848, symSize: 0x3C }
  - { offsetInCU: 0x169C2, offset: 0x169C2, size: 0x8, addend: 0x0, symName: __ZNSt3__114__split_bufferIP14RequiredCourseRNS_9allocatorIS2_EEE7__allocB7v160006Ev, symObjAddr: 0xB9AC, symBinAddr: 0x10000D8C4, symSize: 0x28 }
  - { offsetInCU: 0x169E8, offset: 0x169E8, size: 0x8, addend: 0x0, symName: __ZNSt3__114__split_bufferIP14RequiredCourseRNS_9allocatorIS2_EEE9__end_capB7v160006Ev, symObjAddr: 0xB9D4, symBinAddr: 0x10000D8EC, symSize: 0x28 }
  - { offsetInCU: 0x16A0E, offset: 0x16A0E, size: 0x8, addend: 0x0, symName: __ZNSt3__117__compressed_pairIPP14RequiredCourseRNS_9allocatorIS2_EEEC2B7v160006IDnS6_EEOT_OT0_, symObjAddr: 0xB9FC, symBinAddr: 0x10000D914, symSize: 0x48 }
  - { offsetInCU: 0x16A66, offset: 0x16A66, size: 0x8, addend: 0x0, symName: __ZNSt3__122__compressed_pair_elemIRNS_9allocatorIP14RequiredCourseEELi1ELb0EEC2B7v160006IS5_vEEOT_, symObjAddr: 0xBA44, symBinAddr: 0x10000D95C, symSize: 0x20 }
  - { offsetInCU: 0x16AA8, offset: 0x16AA8, size: 0x8, addend: 0x0, symName: __ZNSt3__19allocatorIP14RequiredCourseE8allocateB7v160006Em, symObjAddr: 0xBA64, symBinAddr: 0x10000D97C, symSize: 0x84 }
  - { offsetInCU: 0x16ADC, offset: 0x16ADC, size: 0x8, addend: 0x0, symName: __ZNSt3__117__compressed_pairIPP14RequiredCourseRNS_9allocatorIS2_EEE6secondB7v160006Ev, symObjAddr: 0xBAE8, symBinAddr: 0x10000DA00, symSize: 0x28 }
  - { offsetInCU: 0x16B02, offset: 0x16B02, size: 0x8, addend: 0x0, symName: __ZNSt3__122__compressed_pair_elemIRNS_9allocatorIP14RequiredCourseEELi1ELb0EE5__getB7v160006Ev, symObjAddr: 0xBB10, symBinAddr: 0x10000DA28, symSize: 0x18 }
  - { offsetInCU: 0x16B28, offset: 0x16B28, size: 0x8, addend: 0x0, symName: __ZNSt3__117__compressed_pairIPP14RequiredCourseRNS_9allocatorIS2_EEE5firstB7v160006Ev, symObjAddr: 0xBB28, symBinAddr: 0x10000DA40, symSize: 0x24 }
  - { offsetInCU: 0x16B4E, offset: 0x16B4E, size: 0x8, addend: 0x0, symName: __ZNSt3__116reverse_iteratorIPP14RequiredCourseEC1B7v160006ES3_, symObjAddr: 0xBC34, symBinAddr: 0x10000DB4C, symSize: 0x34 }
  - { offsetInCU: 0x16B86, offset: 0x16B86, size: 0x8, addend: 0x0, symName: __ZNKSt3__116reverse_iteratorIPP14RequiredCourseE4baseB7v160006Ev, symObjAddr: 0xBC68, symBinAddr: 0x10000DB80, symSize: 0x18 }
  - { offsetInCU: 0x16BAC, offset: 0x16BAC, size: 0x8, addend: 0x0, symName: __ZNKSt3__16vectorIP14RequiredCourseNS_9allocatorIS2_EEE14__annotate_newB7v160006Em, symObjAddr: 0xBCBC, symBinAddr: 0x10000DBD4, symSize: 0xAC }
  - { offsetInCU: 0x16BE1, offset: 0x16BE1, size: 0x8, addend: 0x0, symName: __ZNKSt3__116reverse_iteratorIPP14RequiredCourseEdeB7v160006Ev, symObjAddr: 0xBE10, symBinAddr: 0x10000DD28, symSize: 0x28 }
  - { offsetInCU: 0x16C15, offset: 0x16C15, size: 0x8, addend: 0x0, symName: __ZNSt3__116reverse_iteratorIPP14RequiredCourseEppB7v160006Ev, symObjAddr: 0xBE38, symBinAddr: 0x10000DD50, symSize: 0x20 }
  - { offsetInCU: 0x16C40, offset: 0x16C40, size: 0x8, addend: 0x0, symName: __ZNSt3__119__to_address_helperINS_16reverse_iteratorIPP14RequiredCourseEEvE6__callB7v160006ERKS5_, symObjAddr: 0xBED0, symBinAddr: 0x10000DDE8, symSize: 0x4C }
  - { offsetInCU: 0x16C63, offset: 0x16C63, size: 0x8, addend: 0x0, symName: __ZNKSt3__116reverse_iteratorIPP14RequiredCourseEptB7v160006Ev, symObjAddr: 0xBF1C, symBinAddr: 0x10000DE34, symSize: 0x24 }
  - { offsetInCU: 0x16CA3, offset: 0x16CA3, size: 0x8, addend: 0x0, symName: __ZNKSt3__111__move_loopINS_17_ClassicAlgPolicyEEclB7v160006INS_16reverse_iteratorIPP14RequiredCourseEES8_S8_EENS_4pairIT_T1_EESA_T0_SB_, symObjAddr: 0xC1D0, symBinAddr: 0x10000E0E8, symSize: 0xA0 }
  - { offsetInCU: 0x16D14, offset: 0x16D14, size: 0x8, addend: 0x0, symName: __ZNSt3__18_IterOpsINS_17_ClassicAlgPolicyEE11__iter_moveB7v160006IRNS_16reverse_iteratorIPP14RequiredCourseEEEENS_9enable_ifIXsr12is_referenceIDTdeclsr3stdE7declvalIRT_EEEEE5valueEDTclsr3stdE4movedeclsr3stdE7declvalISC_EEEEE4typeEOSB_, symObjAddr: 0xC3D0, symBinAddr: 0x10000E2E8, symSize: 0x28 }
  - { offsetInCU: 0x16D40, offset: 0x16D40, size: 0x8, addend: 0x0, symName: __ZNSt3__18_IterOpsINS_17_ClassicAlgPolicyEE25__validate_iter_referenceB7v160006IRNS_16reverse_iteratorIPP14RequiredCourseEEEEvv, symObjAddr: 0xC3F8, symBinAddr: 0x10000E310, symSize: 0x4 }
  - { offsetInCU: 0x16D5E, offset: 0x16D5E, size: 0x8, addend: 0x0, symName: __ZNSt3__118__unwrap_iter_implINS_16reverse_iteratorIPP14RequiredCourseEELb0EE8__unwrapB7v160006ES5_, symObjAddr: 0xC3FC, symBinAddr: 0x10000E314, symSize: 0x24 }
  - { offsetInCU: 0x16D81, offset: 0x16D81, size: 0x8, addend: 0x0, symName: __ZNSt3__14pairINS_16reverse_iteratorIPP14RequiredCourseEES5_EC1B7v160006ERKS5_S8_, symObjAddr: 0xC420, symBinAddr: 0x10000E338, symSize: 0x3C }
  - { offsetInCU: 0x16DC7, offset: 0x16DC7, size: 0x8, addend: 0x0, symName: __ZNSt3__14pairINS_16reverse_iteratorIPP14RequiredCourseEES5_EC2B7v160006ERKS5_S8_, symObjAddr: 0xC45C, symBinAddr: 0x10000E374, symSize: 0x34 }
  - { offsetInCU: 0x16E0D, offset: 0x16E0D, size: 0x8, addend: 0x0, symName: __ZNSt3__118__unwrap_iter_implINS_16reverse_iteratorIPP14RequiredCourseEELb0EE8__rewrapB7v160006ES5_S5_, symObjAddr: 0xC490, symBinAddr: 0x10000E3A8, symSize: 0x2C }
  - { offsetInCU: 0x16E3B, offset: 0x16E3B, size: 0x8, addend: 0x0, symName: __ZNSt3__116reverse_iteratorIPP14RequiredCourseEC2B7v160006ES3_, symObjAddr: 0xC4BC, symBinAddr: 0x10000E3D4, symSize: 0x28 }
  - { offsetInCU: 0x16E73, offset: 0x16E73, size: 0x8, addend: 0x0, symName: __ZNSt3__114__split_bufferIP14RequiredCourseRNS_9allocatorIS2_EEED2Ev, symObjAddr: 0xC4E4, symBinAddr: 0x10000E3FC, symSize: 0x80 }
  - { offsetInCU: 0x16E9F, offset: 0x16E9F, size: 0x8, addend: 0x0, symName: __ZNSt3__114__split_bufferIP14RequiredCourseRNS_9allocatorIS2_EEE5clearB7v160006Ev, symObjAddr: 0xC564, symBinAddr: 0x10000E47C, symSize: 0x28 }
  - { offsetInCU: 0x16EC5, offset: 0x16EC5, size: 0x8, addend: 0x0, symName: __ZNKSt3__114__split_bufferIP14RequiredCourseRNS_9allocatorIS2_EEE8capacityB7v160006Ev, symObjAddr: 0xC58C, symBinAddr: 0x10000E4A4, symSize: 0x40 }
  - { offsetInCU: 0x16EEB, offset: 0x16EEB, size: 0x8, addend: 0x0, symName: __ZNSt3__114__split_bufferIP14RequiredCourseRNS_9allocatorIS2_EEE17__destruct_at_endB7v160006EPS2_, symObjAddr: 0xC5CC, symBinAddr: 0x10000E4E4, symSize: 0x2C }
  - { offsetInCU: 0x16F1F, offset: 0x16F1F, size: 0x8, addend: 0x0, symName: __ZNSt3__114__split_bufferIP14RequiredCourseRNS_9allocatorIS2_EEE17__destruct_at_endB7v160006EPS2_NS_17integral_constantIbLb0EEE, symObjAddr: 0xC5F8, symBinAddr: 0x10000E510, symSize: 0x94 }
  - { offsetInCU: 0x16F60, offset: 0x16F60, size: 0x8, addend: 0x0, symName: __ZNKSt3__114__split_bufferIP14RequiredCourseRNS_9allocatorIS2_EEE9__end_capB7v160006Ev, symObjAddr: 0xC68C, symBinAddr: 0x10000E5A4, symSize: 0x28 }
  - { offsetInCU: 0x16F86, offset: 0x16F86, size: 0x8, addend: 0x0, symName: __ZNKSt3__117__compressed_pairIPP14RequiredCourseRNS_9allocatorIS2_EEE5firstB7v160006Ev, symObjAddr: 0xC6B4, symBinAddr: 0x10000E5CC, symSize: 0x24 }
  - { offsetInCU: 0x16FAC, offset: 0x16FAC, size: 0x8, addend: 0x0, symName: __ZNSt3__19basic_iosIcNS_11char_traitsIcEEEC2B7v160006Ev, symObjAddr: 0xC6D8, symBinAddr: 0x10000E5F0, symSize: 0x44 }
  - { offsetInCU: 0x16FD6, offset: 0x16FD6, size: 0x8, addend: 0x0, symName: __ZNSt3__113basic_istreamIcNS_11char_traitsIcEEEC2B7v160006EPNS_15basic_streambufIcS2_EE, symObjAddr: 0xC71C, symBinAddr: 0x10000E634, symSize: 0x64 }
  - { offsetInCU: 0x1701B, offset: 0x1701B, size: 0x8, addend: 0x0, symName: __ZNSt3__18ios_baseC2B7v160006Ev, symObjAddr: 0xC780, symBinAddr: 0x10000E698, symSize: 0x24 }
  - { offsetInCU: 0x17045, offset: 0x17045, size: 0x8, addend: 0x0, symName: __ZNSt3__19basic_iosIcNS_11char_traitsIcEEE4initB7v160006EPNS_15basic_streambufIcS2_EE, symObjAddr: 0xC7A4, symBinAddr: 0x10000E6BC, symSize: 0x44 }
...
